CCS PCH C Compiler, Version 5.048, 5967               02-Aug-18 08:33

               Filename:   F:\scale\0802NewCode\main.lst

               ROM used:   1998 bytes (3%)
                           Largest free fragment is 63534
               RAM used:   103 (3%) at main() level
                           110 (3%) worst case
               Stack used: 1 locations (0 in main + 1 for interrupts)
               Stack size: 30

*
00000:  GOTO   0536
*
00008:  MOVWF  04
0000A:  MOVFF  FD8,05
0000E:  MOVFF  FE0,06
00012:  MOVLB  0
00014:  MOVFF  FE9,0C
00018:  MOVFF  FEA,07
0001C:  MOVFF  FE1,08
00020:  MOVFF  FE2,09
00024:  MOVFF  FD9,0A
00028:  MOVFF  FDA,0B
0002C:  MOVFF  FF3,12
00030:  MOVFF  FF4,13
00034:  MOVFF  FFA,14
00038:  MOVFF  FF5,15
0003C:  MOVFF  FF6,16
00040:  MOVFF  FF7,17
00044:  MOVFF  00,0E
00048:  MOVFF  01,0F
0004C:  MOVFF  02,10
00050:  MOVFF  03,11
00054:  BTFSS  F9D.5
00056:  GOTO   0060
0005A:  BTFSC  F9E.5
0005C:  GOTO   00DE
00060:  MOVFF  0E,00
00064:  MOVFF  0F,01
00068:  MOVFF  10,02
0006C:  MOVFF  11,03
00070:  MOVFF  0C,FE9
00074:  MOVFF  07,FEA
00078:  BSF    07.7
0007A:  MOVFF  08,FE1
0007E:  MOVFF  09,FE2
00082:  MOVFF  0A,FD9
00086:  MOVFF  0B,FDA
0008A:  MOVFF  12,FF3
0008E:  MOVFF  13,FF4
00092:  MOVFF  14,FFA
00096:  MOVFF  15,FF5
0009A:  MOVFF  16,FF6
0009E:  MOVFF  17,FF7
000A2:  MOVF   04,W
000A4:  MOVFF  06,FE0
000A8:  MOVFF  05,FD8
000AC:  RETFIE 0
.................... #include <scale.h> 
.................... #include <18F26K22.h> 
....................  
.................... //////////// Standard Header file for the PIC18F26K22 device //////////////// 
.................... /////////////////////////////////////////////////////////////////////////// 
.................... ////        (C) Copyright 1996, 2014 Custom Computer Services          //// 
.................... //// This source code may only be used by licensed users of the CCS C  //// 
.................... //// compiler.  This source code may only be distributed to other      //// 
.................... //// licensed users of the CCS C compiler.  No other use, reproduction //// 
.................... //// or distribution is permitted without written permission.          //// 
.................... //// Derivative programs created using this software in object code    //// 
.................... //// form are not restricted in any way.                               //// 
.................... /////////////////////////////////////////////////////////////////////////// 
.................... #device PIC18F26K22 
000AE:  DATA 23,4D
000B0:  DATA 44,30
000B2:  DATA 30,30
000B4:  DATA 41,00
000B6:  DATA 23,43
000B8:  DATA 47,30
000BA:  DATA 34,00
000BC:  DATA 23,49
000BE:  DATA 44,30
000C0:  DATA 30,30
000C2:  DATA 39,00
000C4:  DATA 23,41
000C6:  DATA 4B,30
000C8:  DATA 00,00
000CA:  DATA 23,3F
000CC:  DATA 49,00
000CE:  DATA 0A,52
000D0:  DATA 45,53
000D2:  DATA 45,54
000D4:  DATA 3A,25
000D6:  DATA 73,56
000D8:  DATA 2E,31
000DA:  DATA 2E,33
000DC:  DATA 45,00
*
00100:  DATA 53,25
00102:  DATA 75,4E
00104:  DATA 31,33
00106:  DATA 34,2E
00108:  DATA 33,55
0010A:  DATA 32,30
0010C:  DATA 2E,30
0010E:  DATA 30,30
00110:  DATA 41,32
00112:  DATA 30,54
00114:  DATA 31,53
00116:  DATA 25,75
00118:  DATA 4E,31
0011A:  DATA 33,34
0011C:  DATA 2E,33
0011E:  DATA 41,32
00120:  DATA 30,54
00122:  DATA 31,53
00124:  DATA 25,75
00126:  DATA 4E,31
00128:  DATA 33,34
0012A:  DATA 2E,33
0012C:  DATA 41,32
0012E:  DATA 30,54
00130:  DATA 31,53
00132:  DATA 25,75
00134:  DATA 4E,31
00136:  DATA 33,34
00138:  DATA 2E,33
0013A:  DATA 41,32
0013C:  DATA 30,54
0013E:  DATA 31,53
00140:  DATA 25,75
00142:  DATA 4E,31
00144:  DATA 33,34
00146:  DATA 2E,33
00148:  DATA 41,32
0014A:  DATA 30,54
0014C:  DATA 31,53
0014E:  DATA 25,75
00150:  DATA 4E,31
00152:  DATA 33,34
00154:  DATA 2E,33
00156:  DATA 41,32
00158:  DATA 30,54
0015A:  DATA 31,53
0015C:  DATA 25,75
0015E:  DATA 4E,31
00160:  DATA 33,34
00162:  DATA 2E,33
00164:  DATA 41,32
00166:  DATA 30,54
00168:  DATA 31,53
0016A:  DATA 25,75
0016C:  DATA 4E,31
0016E:  DATA 33,34
00170:  DATA 2E,33
00172:  DATA 41,32
00174:  DATA 30,54
00176:  DATA 31,53
00178:  DATA 25,75
0017A:  DATA 4E,31
0017C:  DATA 33,34
0017E:  DATA 2E,33
00180:  DATA 41,32
00182:  DATA 30,54
00184:  DATA 31,53
00186:  DATA 25,75
00188:  DATA 4E,31
0018A:  DATA 33,34
0018C:  DATA 2E,33
0018E:  DATA 41,32
00190:  DATA 30,54
00192:  DATA 31,45
00194:  DATA 00,00
00196:  TBLRD*+
00198:  MOVF   FF5,F
0019A:  BZ    01B6
0019C:  MOVFF  FF6,5F
001A0:  MOVFF  FF7,60
001A4:  MOVF   FF5,W
001A6:  BTFSS  F9E.4
001A8:  BRA    01A6
001AA:  MOVWF  FAD
001AC:  MOVFF  5F,FF6
001B0:  MOVFF  60,FF7
001B4:  BRA    0196
001B6:  RETURN 0
*
00288:  MOVF   x62,W
0028A:  MULWF  x64
0028C:  MOVFF  FF3,01
00290:  MOVFF  FF4,00
00294:  MULWF  x65
00296:  MOVF   FF3,W
00298:  ADDWF  00,F
0029A:  MOVF   x63,W
0029C:  MULWF  x64
0029E:  MOVF   FF3,W
002A0:  ADDWFC 00,W
002A2:  MOVWF  02
002A4:  RETURN 0
*
0042C:  TBLRD*+
0042E:  MOVFF  FF6,68
00432:  MOVFF  FF7,69
00436:  MOVF   FF5,W
00438:  BTFSS  F9E.4
0043A:  BRA    0438
0043C:  MOVWF  FAD
0043E:  MOVFF  68,FF6
00442:  MOVFF  69,FF7
00446:  DECFSZ x67,F
00448:  BRA    042C
0044A:  RETURN 0
0044C:  MOVF   FEF,F
0044E:  BZ    0470
00450:  MOVFF  FEA,5F
00454:  MOVFF  FE9,5E
00458:  MOVF   FEF,W
0045A:  BTFSS  F9E.4
0045C:  BRA    045A
0045E:  MOVWF  FAD
00460:  MOVFF  5F,FEA
00464:  MOVFF  5E,FE9
00468:  INCF   FE9,F
0046A:  BTFSC  FD8.2
0046C:  INCF   FEA,F
0046E:  BRA    044C
00470:  GOTO   048A (RETURN)
*
004A2:  MOVF   x6A,W
004A4:  CLRF   01
004A6:  SUBWF  x69,W
004A8:  BC    04B0
004AA:  MOVFF  69,00
004AE:  BRA    04C8
004B0:  CLRF   00
004B2:  MOVLW  08
004B4:  MOVWF  x6B
004B6:  RLCF   x69,F
004B8:  RLCF   00,F
004BA:  MOVF   x6A,W
004BC:  SUBWF  00,W
004BE:  BTFSC  FD8.0
004C0:  MOVWF  00
004C2:  RLCF   01,F
004C4:  DECFSZ x6B,F
004C6:  BRA    04B6
004C8:  RETURN 0
004CA:  MOVF   01,W
004CC:  MOVFF  67,69
004D0:  MOVLW  64
004D2:  MOVWF  x6A
004D4:  RCALL  04A2
004D6:  MOVFF  00,67
004DA:  MOVF   01,W
004DC:  MOVLW  30
004DE:  BNZ   04EE
004E0:  BTFSS  x68.1
004E2:  BRA    04FE
004E4:  BTFSC  x68.3
004E6:  BRA    04FE
004E8:  BTFSC  x68.4
004EA:  MOVLW  20
004EC:  BRA    04F4
004EE:  BCF    x68.3
004F0:  BCF    x68.4
004F2:  BSF    x68.0
004F4:  ADDWF  01,F
004F6:  MOVF   01,W
004F8:  BTFSS  F9E.4
004FA:  BRA    04F8
004FC:  MOVWF  FAD
004FE:  MOVFF  67,69
00502:  MOVLW  0A
00504:  MOVWF  x6A
00506:  RCALL  04A2
00508:  MOVFF  00,67
0050C:  MOVF   01,W
0050E:  MOVLW  30
00510:  BNZ   051E
00512:  BTFSC  x68.3
00514:  BRA    0528
00516:  BTFSS  x68.0
00518:  BRA    0528
0051A:  BTFSC  x68.4
0051C:  MOVLW  20
0051E:  ADDWF  01,F
00520:  MOVF   01,W
00522:  BTFSS  F9E.4
00524:  BRA    0522
00526:  MOVWF  FAD
00528:  MOVLW  30
0052A:  ADDWF  x67,F
0052C:  MOVF   x67,W
0052E:  BTFSS  F9E.4
00530:  BRA    052E
00532:  MOVWF  FAD
00534:  RETURN 0
....................  
.................... #list 
....................  
.................... #include <string.h> 
.................... //////////////////////////////////////////////////////////////////////////// 
.................... ////        (C) Copyright 1996,2008 Custom Computer Services            //// 
.................... //// This source code may only be used by licensed users of the CCS C   //// 
.................... //// compiler.  This source code may only be distributed to other       //// 
.................... //// licensed users of the CCS C compiler.  No other use, reproduction  //// 
.................... //// or distribution is permitted without written permission.           //// 
.................... //// Derivative programs created using this software in object code     //// 
.................... //// form are not restricted in any way.                                //// 
.................... //////////////////////////////////////////////////////////////////////////// 
....................  
.................... #ifndef _STRING 
.................... #define _STRING 
.................... #include <stddef.h> 
.................... /////////////////////////////////////////////////////////////////////////// 
.................... ////        (C) Copyright 1996,2003 Custom Computer Services           //// 
.................... //// This source code may only be used by licensed users of the CCS C  //// 
.................... //// compiler.  This source code may only be distributed to other      //// 
.................... //// licensed users of the CCS C compiler.  No other use, reproduction //// 
.................... //// or distribution is permitted without written permission.          //// 
.................... //// Derivative programs created using this software in object code    //// 
.................... //// form are not restricted in any way.                               //// 
.................... /////////////////////////////////////////////////////////////////////////// 
....................  
.................... #ifndef _STDDEF 
....................  
.................... #define _STDDEF 
....................  
.................... #if sizeof(unsigned int8 *)==1 
.................... #define ptrdiff_t unsigned int8 
.................... #else 
.................... #define ptrdiff_t unsigned int16 
.................... #endif 
....................  
.................... #if defined(__PCB__) || defined(__PCM__) 
.................... #define size_t unsigned int8 
.................... #else 
.................... #define size_t unsigned int16 
.................... #endif 
.................... #define wchar_t char 
.................... #define NULL 0 
....................  
.................... #define offsetof(s,f) (offsetofbit(s,f)/8) 
....................  
.................... #endif 
....................  
.................... #include <ctype.h> 
.................... //////////////////////////////////////////////////////////////////////////// 
.................... ////        (C) Copyright 1996,2003 Custom Computer Services            //// 
.................... //// This source code may only be used by licensed users of the CCS C   //// 
.................... //// compiler.  This source code may only be distributed to other       //// 
.................... //// licensed users of the CCS C compiler.  No other use, reproduction  //// 
.................... //// or distribution is permitted without written permission.           //// 
.................... //// Derivative programs created using this software in object code     //// 
.................... //// form are not restricted in any way.                                //// 
.................... //////////////////////////////////////////////////////////////////////////// 
....................  
.................... #ifndef _CTYPE 
.................... #define _CTYPE 
....................  
.................... #define islower(x)  isamong(x,"abcdefghijklmnopqrstuvwxyz") 
.................... #define isupper(x)  isamong(x,"ABCDEFGHIJKLMNOPQRSTUVWXYZ") 
.................... #define isalnum(x)  isamong(x,"0123456789ABCDEFGHIJKLMNOPQRSTUVWXYZabcdefghijklmnopqrstuvwxyz") 
.................... #define isalpha(x)  isamong(x,"ABCDEFGHIJKLMNOPQRSTUVWXYZabcdefghijklmnopqrstuvwxyz") 
.................... #define isdigit(x)  isamong(x,"0123456789") 
.................... #define isspace(x)  ((x)==' ') 
.................... #define isxdigit(x) isamong(x,"0123456789ABCDEFabcdef") 
.................... #define iscntrl(x)  ((x)<' ') 
.................... #define isprint(x)  ((x)>=' ') 
.................... #define isgraph(x)  ((x)>' ') 
.................... #define ispunct(x)  (((x)>' ')&&!isalnum(x)) 
....................  
.................... #endif 
....................  
....................  
....................  
....................  
....................  
.................... ////////////////////////////////////////////// 
.................... //// Uncomment the following define to    //// 
.................... //// allow some functions to use a        //// 
.................... //// quicker algorithm, but use more ROM  //// 
.................... ////                                      //// 
.................... //// #define FASTER_BUT_MORE_ROM          //// 
.................... ////////////////////////////////////////////// 
....................  
....................  
....................  
.................... /*Copying functions*/ 
.................... /* standard template: 
....................    void *memmove(void *s1, void *s2, size_t n). 
....................    Copies max of n characters safely (not following ending '\0') 
....................    from s2 in s1; if s2 has less than n characters, appends 0 */ 
....................  
.................... unsigned char *memmove(void *s1,void *s2,size_t n) 
.................... { 
....................    unsigned char *sc1; 
....................    unsigned char *sc2; 
....................    sc1=s1; 
....................    sc2=s2; 
....................    if(sc2<sc1 && sc1 <sc2 +n) 
....................       for(sc1+=n,sc2+=n;0<n;--n) 
....................          *--sc1=*--sc2; 
....................    else 
....................       for(;0<n;--n) 
....................          *sc1++=*sc2++; 
....................   return s1; 
....................   } 
....................  
.................... /* Standard template: char *strcpy(char *s1, const char *s2) 
....................    copies the string s2 including the null character to s1. 
....................    This is a compiler built in to handle the different address 
....................    spaces */ 
....................  
.................... #define strcopy strcpy 
....................  
.................... /* standard template: 
....................    char *strncpy(char *s1, const char *s2, size_t n). 
....................    Copies max of n characters (not following ending '\0') 
....................    from s2 in s1; if s2 has less than n characters, appends 0 */ 
....................  
.................... unsigned char *strncpy(unsigned char *s1, unsigned char *s2, size_t n) 
.................... { 
....................   unsigned char *s; 
....................  
....................   for (s = s1; n > 0 && *s2 != '\0'; n--) 
....................      *s++ = *s2++; 
....................   for (; n > 0; n--) 
....................      *s++ = '\0'; 
....................  
....................   return(s1); 
.................... } 
.................... /***********************************************************/ 
....................  
.................... /*concatenation functions*/ 
.................... /* standard template: char *strcat(char *s1, const char *s2) 
.................... appends s2 to s1*/ 
....................  
.................... unsigned char *strcat(unsigned char *s1, unsigned char *s2) 
.................... { 
....................    unsigned char *s; 
....................  
....................    for (s = s1; *s != '\0'; ++s); 
....................    while(*s2 != '\0') 
....................    { 
....................       *s = *s2; 
....................       ++s; 
....................       ++s2; 
....................    } 
....................  
....................    *s = '\0'; 
....................    return(s1); 
.................... } 
.................... /* standard template: char *strncat(char *s1, char *s2,size_t n) 
.................... appends not more than n characters from s2 to s1*/ 
....................  
.................... unsigned char *strncat(unsigned char *s1, unsigned char *s2, size_t n) 
.................... { 
....................    unsigned char *s; 
....................  
....................    for (s = s1; *s != '\0'; ++s); 
....................    while(*s2 != '\0' && 0<n) 
....................    { 
....................       *s = *s2; 
....................       ++s; 
....................       ++s2; 
....................       --n; 
....................    } 
....................  
....................    *s = '\0'; 
....................    return(s1); 
.................... } 
....................  
.................... /***********************************************************/ 
....................  
....................  
.................... /*comparison functions*/ 
.................... /* standard template: signed int memcmp(void *s1, void *s2). 
....................    Compares s1 & s2; returns -1 if s1<s2, 0 if s1=s2, 1 if s1>s2 */ 
....................  
.................... signed int8 memcmp(void * s1,void *s2,size_t n) 
.................... { 
.................... unsigned char *su1, *su2; 
.................... for(su1=s1, su2=s2; 0<n; ++su1, ++su2, --n) 
.................... { 
....................    if(*su1!=*su2) 
....................       return ((*su1<*su2)?-1:1); 
.................... } 
.................... return 0; 
.................... } 
....................  
.................... /* standard template: int strcmp(const char *s1, const char *s2). 
....................    Compares s1 & s2; returns -1 if s1<s2, 0 if s1=s2, 1 if s1>s2 */ 
....................  
.................... signed int8 strcmp(unsigned char *s1, unsigned char *s2) 
.................... { 
....................    for (; *s1 == *s2; s1++, s2++) 
....................       if (*s1 == '\0') 
....................          return(0); 
....................    return((*s1 < *s2) ? -1: 1); 
.................... } 
.................... /* standard template: int strcoll(const char *s1, const char *s2). 
....................    Compares s1 & s2; returns -1 if s1<s2, 0 if s1=s2, 1 if s1>s2 */ 
....................  
.................... signed int8 strcoll(unsigned char *s1, unsigned char *s2) 
.................... { 
....................    for (; *s1 == *s2; s1++, s2++) 
....................       if (*s1 == '\0') 
....................          return(0); 
....................    return((*s1 < *s2) ? -1: 1); 
.................... } 
....................  
.................... /* standard template: 
....................    int strncmp(const char *s1, const char *s2, size_t n). 
....................    Compares max of n characters (not following 0) from s1 to s2; 
....................    returns same as strcmp */ 
....................  
.................... signed int8 strncmp(unsigned char *s1, unsigned char *s2, size_t n) 
.................... { 
....................    for (; n > 0; s1++, s2++, n--) 
....................       if (*s1 != *s2) 
....................          return((*s1 <*s2) ? -1: 1); 
....................       else if (*s1 == '\0') 
....................          return(0); 
....................    return(0); 
.................... } 
.................... /* standard template: 
....................    int strxfrm(const char *s1, const char *s2, size_t n). 
....................    transforms maximum of n characters from s2 and places them into s1, returns number of chars written ot s1. 
....................    if s1 is NULL and n is 0, then it returns the length of s2.*/ 
.................... size_t strxfrm(unsigned char *s1, unsigned char *s2, size_t n) 
.................... { 
....................    unsigned char c; 
....................    unsigned int8 n1; 
....................     
....................    if (!s1 && !n) 
....................       n = -1; //find length 
....................  
....................    n1 = 0; 
....................     
....................    for (; n1 < n; n1++) 
....................    { 
....................       c = *s2++; 
....................       if (!c) 
....................          break; 
....................       if (s1) 
....................          *s1++ = c; 
....................    } 
....................  
....................   return(n1); 
.................... } 
....................  
....................  
....................  
....................  
....................  
.................... /***********************************************************/ 
.................... /*Search functions*/ 
.................... /* standard template: void *memchr(const char *s, int c). 
....................    Finds first occurrence of c in n characters of s */ 
....................  
.................... unsigned char *memchr(void *s,unsigned int8 c,size_t n) 
.................... { 
....................    unsigned char uc; 
....................    unsigned char *su; 
....................    uc=c; 
....................    for(su=s;0<n;++su,--n) 
....................       if(*su==uc) 
....................       return su; 
....................    return NULL; 
.................... } 
....................  
.................... /* standard template: char *strchr(const char *s, int c). 
....................    Finds first occurrence of c in s */ 
....................  
.................... unsigned char *strchr(unsigned char *s, unsigned int8 c) 
.................... { 
....................    for (; *s != c; s++) 
....................       if (*s == '\0') 
....................          return(0); 
....................    return(s); 
.................... } 
.................... /* standard template: 
....................    size_t strcspn(const char *s1, const char *s2). 
....................    Computes length of max initial segment of s1 that 
....................    consists entirely of characters NOT from s2*/ 
....................  
.................... unsigned int8  strcspn(unsigned char *s1, unsigned char *s2) 
.................... { 
....................    unsigned char *sc1, *sc2; 
....................  
....................    for (sc1 = s1; *sc1 != 0; sc1++) 
....................       for (sc2 = s2; *sc2 != 0; sc2++) 
....................          if (*sc1 == *sc2) 
....................             return(sc1 - s1); 
....................    return(sc1 - s1); 
.................... } 
.................... /* standard template: 
....................    char *strpbrk(const char *s1, const char *s2). 
....................    Locates first occurence of any character from s2 in s1; 
....................    returns s1 if s2 is empty string */ 
....................  
.................... unsigned char *strpbrk(unsigned char *s1, unsigned char *s2) 
.................... { 
....................    unsigned char *sc1, *sc2; 
....................  
....................    for (sc1 = s1; *sc1 != 0; sc1++) 
....................       for (sc2 = s2; *sc2 != 0; sc2++) 
....................          if (*sc1 == *sc2) 
....................             return(sc1); 
....................    return(0); 
.................... } 
....................  
....................  
.................... /* standard template: char *strrchr(const char *s, int c). 
....................    Finds last occurrence of c in s */ 
....................  
.................... unsigned char *strrchr(unsigned char *s, unsigned int8 c) 
.................... { 
....................    unsigned char *p; 
....................  
....................    for (p = 0; ; s++) 
....................    { 
....................       if (*s == c) 
....................          p = s; 
....................       if (*s == '\0') 
....................          return(p); 
....................    } 
.................... } 
.................... /* computes length of max initial segment of s1 consisting 
....................    entirely of characters from s2 */ 
....................  
.................... unsigned int8  strspn(unsigned char *s1, unsigned char *s2) 
.................... { 
....................    unsigned char *sc1, *sc2; 
....................  
....................    for (sc1 = s1; *sc1 != 0; sc1++) 
....................       for (sc2 = s2; ; sc2++) 
....................     if (*sc2 == '\0') 
....................        return(sc1 - s1); 
....................          else if (*sc1 == *sc2) 
....................             break; 
....................    return(sc1 - s1); 
.................... } 
.................... /* standard template: 
....................    char *strstr(const char *s1, const char *s2); 
....................    Locates first occurence of character sequence s2 in s1; 
....................    returns 0 if s2 is empty string 
....................  
....................    Uncomment #define FASTER_BUT_MORE_ROM at the top of the 
....................    file to use the faster algorithm */ 
.................... unsigned char *strstr(unsigned char *s1, unsigned char *s2) 
.................... { 
....................    unsigned char *s, *t; 
....................  
....................    #ifdef FASTER_BUT_MORE_ROM 
....................    if (*s2 == '\0') 
....................          return(s1); 
....................    #endif 
....................  
....................    while (*s1) 
....................    { 
....................       for(s = s1, t = s2; *t && (*s == *t); ++s, ++t); 
....................  
....................       if (*t == '\0') 
....................          return s1; 
....................       ++s1; 
....................       #ifdef FASTER_BUT_MORE_ROM 
....................          while(*s1 != '\0' && *s1 != *s2) 
....................             ++s1; 
....................       #endif 
....................    } 
....................    return 0; 
.................... } 
....................  
.................... /* standard template: size_t strlen(const char *s). 
....................    Computes length of s1 (preceding terminating 0) */ 
....................  
.................... size_t strlen(unsigned char *s) 
.................... { 
....................    unsigned char *sc; 
....................  
....................    for (sc = s; *sc != 0; sc++); 
*
0023C:  MOVFF  60,62
00240:  MOVFF  5F,61
00244:  MOVFF  62,03
00248:  MOVFF  61,FE9
0024C:  MOVFF  62,FEA
00250:  MOVF   FEF,F
00252:  BZ    025C
00254:  INCF   x61,F
00256:  BTFSC  FD8.2
00258:  INCF   x62,F
0025A:  BRA    0244
....................    return(sc - s); 
0025C:  MOVF   5F,W
0025E:  SUBWF  x61,W
00260:  MOVWF  00
00262:  MOVF   x60,W
00264:  SUBWFB x62,W
00266:  MOVWF  03
00268:  MOVFF  00,01
0026C:  MOVWF  02
0026E:  RETURN 0
.................... } 
....................  
.................... /* standard template: char *strtok(char *s1, const char *s2). 
....................  
....................    Finds next token in s1 delimited by a character from separator 
....................    string s2 (which can be different from call to call).  First call 
....................    starts at beginning of s1 searching for first character NOT 
....................    contained in s2; returns 0 if none is found. 
....................    If one is found, it is the start of first token (return value). 
....................    Function then searches from there for a character contained in s2. 
....................    If none is found, current token extends to end of s1, and subsequent 
....................    searches for a token will return 0.  If one is found, it is 
....................    overwritten by '\0', which terminates current token.  Function saves 
....................    pointer to following character from which next search will start. 
....................    Each subsequent call, with 0 as first argument, starts searching 
....................    from saved pointer */ 
....................  
.................... unsigned char *strtok(unsigned char *s1, unsigned char *s2) 
.................... { 
....................    unsigned char *beg, *end; 
....................    static char *save; 
....................  
....................    beg = (s1)? s1: save; 
....................    beg += strspn(beg, s2); 
....................    if (*beg == '\0') 
....................       return(0); 
....................        
....................    end = strpbrk(beg, s2); 
....................    if (end != '\0') 
....................    { 
....................       *end = '\0'; 
....................       end++; 
....................       save = end; 
....................    } 
....................    else 
....................       save = beg + strlen(beg); 
....................     
....................    return(beg); 
.................... } 
....................  
.................... /*****************************************************************/ 
.................... /*Miscellaneous functions*/ 
.................... /* standard template 
.................... maps error number in errnum to an error message string 
.................... Returns: Pointer to string 
.................... */ 
.................... #ifdef _ERRNO 
.................... unsigned char * strerror(unsigned int8 errnum) 
.................... { 
.................... static unsigned char s[13]; 
.................... switch( errnum) 
.................... { 
.................... case 0: 
....................    strcpy(s,"no errors"); 
....................    return s; 
.................... case EDOM : 
....................    strcpy(s,"domain error"); 
....................    return s; 
.................... case ERANGE: 
....................    strcpy(s,"range error"); 
....................    return s; 
.................... } 
.................... } 
.................... #ENDIF 
....................  
.................... /* standard template: size_t stricmp(const char *s1, const char *s2). 
....................    Compares s1 to s2 ignoring case (upper vs. lower) */ 
....................  
.................... signed int8 stricmp(unsigned char *s1, unsigned char *s2) 
.................... { 
....................  for(; *s1==*s2||(isalpha(*s1)&&isalpha(*s2)&&(*s1==*s2+32||*s2==*s1+32)); 
....................     s1++, s2++) 
....................     if (*s1 == '\0') 
....................        return(0); 
....................  return((*s1 < *s2) ? -1: 1); 
.................... } 
....................  
....................  
.................... /* standard template: char *strlwr(char *s). 
....................    Replaces uppercase letters by lowercase; 
....................    returns pointer to new string s */ 
....................  
.................... unsigned char *strlwr(unsigned char *s) 
.................... { 
....................    unsigned char *p; 
....................  
....................    for (p = s; *p != '\0'; p++) 
....................       if (*p >= 'A' && *p <='Z') 
....................          *p += 'a' - 'A'; 
....................    return(s); 
.................... } 
....................  
.................... /* standard template: char *strupr(char *s). 
....................    Replaces lowercase letters by upercase; 
....................    returns pointer to new string s */ 
....................  
.................... unsigned char *strupr(unsigned char *s) 
.................... { 
....................    unsigned char *p; 
....................  
....................    for (p = s; *p != '\0'; p++) 
....................       if (*p >= 'a' && *p <='z') 
....................          *p -= 'a' - 'A'; 
....................    return(s); 
.................... } 
....................  
....................  
.................... /************************************************************/ 
....................  
....................  
.................... #endif 
....................  
.................... #include <stdio.h> 
.................... /////////////////////////////////////////////////////////////////////////// 
.................... ////        (C) Copyright 1996,2003 Custom Computer Services           //// 
.................... //// This source code may only be used by licensed users of the CCS C  //// 
.................... //// compiler.  This source code may only be distributed to other      //// 
.................... //// licensed users of the CCS C compiler.  No other use, reproduction //// 
.................... //// or distribution is permitted without written permission.          //// 
.................... //// Derivative programs created using this software in object code    //// 
.................... //// form are not restricted in any way.                               //// 
.................... /////////////////////////////////////////////////////////////////////////// 
....................  
.................... #ifndef _STDIO 
.................... #define _STDIO 
.................... #include <string.h> 
.................... //////////////////////////////////////////////////////////////////////////// 
.................... ////        (C) Copyright 1996,2008 Custom Computer Services            //// 
.................... //// This source code may only be used by licensed users of the CCS C   //// 
.................... //// compiler.  This source code may only be distributed to other       //// 
.................... //// licensed users of the CCS C compiler.  No other use, reproduction  //// 
.................... //// or distribution is permitted without written permission.           //// 
.................... //// Derivative programs created using this software in object code     //// 
.................... //// form are not restricted in any way.                                //// 
.................... //////////////////////////////////////////////////////////////////////////// 
....................  
.................... #ifndef _STRING 
.................... #define _STRING 
.................... #include <stddef.h> 
.................... #include <ctype.h> 
....................  
....................  
....................  
.................... ////////////////////////////////////////////// 
.................... //// Uncomment the following define to    //// 
.................... //// allow some functions to use a        //// 
.................... //// quicker algorithm, but use more ROM  //// 
.................... ////                                      //// 
.................... //// #define FASTER_BUT_MORE_ROM          //// 
.................... ////////////////////////////////////////////// 
....................  
....................  
....................  
.................... /*Copying functions*/ 
.................... /* standard template: 
....................    void *memmove(void *s1, void *s2, size_t n). 
....................    Copies max of n characters safely (not following ending '\0') 
....................    from s2 in s1; if s2 has less than n characters, appends 0 */ 
....................  
.................... unsigned char *memmove(void *s1,void *s2,size_t n) 
.................... { 
....................    unsigned char *sc1; 
....................    unsigned char *sc2; 
....................    sc1=s1; 
....................    sc2=s2; 
....................    if(sc2<sc1 && sc1 <sc2 +n) 
....................       for(sc1+=n,sc2+=n;0<n;--n) 
....................          *--sc1=*--sc2; 
....................    else 
....................       for(;0<n;--n) 
....................          *sc1++=*sc2++; 
....................   return s1; 
....................   } 
....................  
.................... /* Standard template: char *strcpy(char *s1, const char *s2) 
....................    copies the string s2 including the null character to s1. 
....................    This is a compiler built in to handle the different address 
....................    spaces */ 
....................  
.................... #define strcopy strcpy 
....................  
.................... /* standard template: 
....................    char *strncpy(char *s1, const char *s2, size_t n). 
....................    Copies max of n characters (not following ending '\0') 
....................    from s2 in s1; if s2 has less than n characters, appends 0 */ 
....................  
.................... unsigned char *strncpy(unsigned char *s1, unsigned char *s2, size_t n) 
.................... { 
....................   unsigned char *s; 
....................  
....................   for (s = s1; n > 0 && *s2 != '\0'; n--) 
....................      *s++ = *s2++; 
....................   for (; n > 0; n--) 
....................      *s++ = '\0'; 
....................  
....................   return(s1); 
.................... } 
.................... /***********************************************************/ 
....................  
.................... /*concatenation functions*/ 
.................... /* standard template: char *strcat(char *s1, const char *s2) 
.................... appends s2 to s1*/ 
....................  
.................... unsigned char *strcat(unsigned char *s1, unsigned char *s2) 
.................... { 
....................    unsigned char *s; 
....................  
....................    for (s = s1; *s != '\0'; ++s); 
....................    while(*s2 != '\0') 
....................    { 
....................       *s = *s2; 
....................       ++s; 
....................       ++s2; 
....................    } 
....................  
....................    *s = '\0'; 
....................    return(s1); 
.................... } 
.................... /* standard template: char *strncat(char *s1, char *s2,size_t n) 
.................... appends not more than n characters from s2 to s1*/ 
....................  
.................... unsigned char *strncat(unsigned char *s1, unsigned char *s2, size_t n) 
.................... { 
....................    unsigned char *s; 
....................  
....................    for (s = s1; *s != '\0'; ++s); 
....................    while(*s2 != '\0' && 0<n) 
....................    { 
....................       *s = *s2; 
....................       ++s; 
....................       ++s2; 
....................       --n; 
....................    } 
....................  
....................    *s = '\0'; 
....................    return(s1); 
.................... } 
....................  
.................... /***********************************************************/ 
....................  
....................  
.................... /*comparison functions*/ 
.................... /* standard template: signed int memcmp(void *s1, void *s2). 
....................    Compares s1 & s2; returns -1 if s1<s2, 0 if s1=s2, 1 if s1>s2 */ 
....................  
.................... signed int8 memcmp(void * s1,void *s2,size_t n) 
.................... { 
.................... unsigned char *su1, *su2; 
.................... for(su1=s1, su2=s2; 0<n; ++su1, ++su2, --n) 
.................... { 
....................    if(*su1!=*su2) 
....................       return ((*su1<*su2)?-1:1); 
.................... } 
.................... return 0; 
.................... } 
....................  
.................... /* standard template: int strcmp(const char *s1, const char *s2). 
....................    Compares s1 & s2; returns -1 if s1<s2, 0 if s1=s2, 1 if s1>s2 */ 
....................  
.................... signed int8 strcmp(unsigned char *s1, unsigned char *s2) 
.................... { 
....................    for (; *s1 == *s2; s1++, s2++) 
....................       if (*s1 == '\0') 
....................          return(0); 
....................    return((*s1 < *s2) ? -1: 1); 
.................... } 
.................... /* standard template: int strcoll(const char *s1, const char *s2). 
....................    Compares s1 & s2; returns -1 if s1<s2, 0 if s1=s2, 1 if s1>s2 */ 
....................  
.................... signed int8 strcoll(unsigned char *s1, unsigned char *s2) 
.................... { 
....................    for (; *s1 == *s2; s1++, s2++) 
....................       if (*s1 == '\0') 
....................          return(0); 
....................    return((*s1 < *s2) ? -1: 1); 
.................... } 
....................  
.................... /* standard template: 
....................    int strncmp(const char *s1, const char *s2, size_t n). 
....................    Compares max of n characters (not following 0) from s1 to s2; 
....................    returns same as strcmp */ 
....................  
.................... signed int8 strncmp(unsigned char *s1, unsigned char *s2, size_t n) 
.................... { 
....................    for (; n > 0; s1++, s2++, n--) 
....................       if (*s1 != *s2) 
....................          return((*s1 <*s2) ? -1: 1); 
....................       else if (*s1 == '\0') 
....................          return(0); 
....................    return(0); 
.................... } 
.................... /* standard template: 
....................    int strxfrm(const char *s1, const char *s2, size_t n). 
....................    transforms maximum of n characters from s2 and places them into s1, returns number of chars written ot s1. 
....................    if s1 is NULL and n is 0, then it returns the length of s2.*/ 
.................... size_t strxfrm(unsigned char *s1, unsigned char *s2, size_t n) 
.................... { 
....................    unsigned char c; 
....................    unsigned int8 n1; 
....................     
....................    if (!s1 && !n) 
....................       n = -1; //find length 
....................  
....................    n1 = 0; 
....................     
....................    for (; n1 < n; n1++) 
....................    { 
....................       c = *s2++; 
....................       if (!c) 
....................          break; 
....................       if (s1) 
....................          *s1++ = c; 
....................    } 
....................  
....................   return(n1); 
.................... } 
....................  
....................  
....................  
....................  
....................  
.................... /***********************************************************/ 
.................... /*Search functions*/ 
.................... /* standard template: void *memchr(const char *s, int c). 
....................    Finds first occurrence of c in n characters of s */ 
....................  
.................... unsigned char *memchr(void *s,unsigned int8 c,size_t n) 
.................... { 
....................    unsigned char uc; 
....................    unsigned char *su; 
....................    uc=c; 
....................    for(su=s;0<n;++su,--n) 
....................       if(*su==uc) 
....................       return su; 
....................    return NULL; 
.................... } 
....................  
.................... /* standard template: char *strchr(const char *s, int c). 
....................    Finds first occurrence of c in s */ 
....................  
.................... unsigned char *strchr(unsigned char *s, unsigned int8 c) 
.................... { 
....................    for (; *s != c; s++) 
....................       if (*s == '\0') 
....................          return(0); 
....................    return(s); 
.................... } 
.................... /* standard template: 
....................    size_t strcspn(const char *s1, const char *s2). 
....................    Computes length of max initial segment of s1 that 
....................    consists entirely of characters NOT from s2*/ 
....................  
.................... unsigned int8  strcspn(unsigned char *s1, unsigned char *s2) 
.................... { 
....................    unsigned char *sc1, *sc2; 
....................  
....................    for (sc1 = s1; *sc1 != 0; sc1++) 
....................       for (sc2 = s2; *sc2 != 0; sc2++) 
....................          if (*sc1 == *sc2) 
....................             return(sc1 - s1); 
....................    return(sc1 - s1); 
.................... } 
.................... /* standard template: 
....................    char *strpbrk(const char *s1, const char *s2). 
....................    Locates first occurence of any character from s2 in s1; 
....................    returns s1 if s2 is empty string */ 
....................  
.................... unsigned char *strpbrk(unsigned char *s1, unsigned char *s2) 
.................... { 
....................    unsigned char *sc1, *sc2; 
....................  
....................    for (sc1 = s1; *sc1 != 0; sc1++) 
....................       for (sc2 = s2; *sc2 != 0; sc2++) 
....................          if (*sc1 == *sc2) 
....................             return(sc1); 
....................    return(0); 
.................... } 
....................  
....................  
.................... /* standard template: char *strrchr(const char *s, int c). 
....................    Finds last occurrence of c in s */ 
....................  
.................... unsigned char *strrchr(unsigned char *s, unsigned int8 c) 
.................... { 
....................    unsigned char *p; 
....................  
....................    for (p = 0; ; s++) 
....................    { 
....................       if (*s == c) 
....................          p = s; 
....................       if (*s == '\0') 
....................          return(p); 
....................    } 
.................... } 
.................... /* computes length of max initial segment of s1 consisting 
....................    entirely of characters from s2 */ 
....................  
.................... unsigned int8  strspn(unsigned char *s1, unsigned char *s2) 
.................... { 
....................    unsigned char *sc1, *sc2; 
....................  
....................    for (sc1 = s1; *sc1 != 0; sc1++) 
....................       for (sc2 = s2; ; sc2++) 
....................     if (*sc2 == '\0') 
....................        return(sc1 - s1); 
....................          else if (*sc1 == *sc2) 
....................             break; 
....................    return(sc1 - s1); 
.................... } 
.................... /* standard template: 
....................    char *strstr(const char *s1, const char *s2); 
....................    Locates first occurence of character sequence s2 in s1; 
....................    returns 0 if s2 is empty string 
....................  
....................    Uncomment #define FASTER_BUT_MORE_ROM at the top of the 
....................    file to use the faster algorithm */ 
.................... unsigned char *strstr(unsigned char *s1, unsigned char *s2) 
.................... { 
....................    unsigned char *s, *t; 
....................  
....................    #ifdef FASTER_BUT_MORE_ROM 
....................    if (*s2 == '\0') 
....................          return(s1); 
....................    #endif 
....................  
....................    while (*s1) 
....................    { 
....................       for(s = s1, t = s2; *t && (*s == *t); ++s, ++t); 
....................  
....................       if (*t == '\0') 
....................          return s1; 
....................       ++s1; 
....................       #ifdef FASTER_BUT_MORE_ROM 
....................          while(*s1 != '\0' && *s1 != *s2) 
....................             ++s1; 
....................       #endif 
....................    } 
....................    return 0; 
.................... } 
....................  
.................... /* standard template: size_t strlen(const char *s). 
....................    Computes length of s1 (preceding terminating 0) */ 
....................  
.................... size_t strlen(unsigned char *s) 
.................... { 
....................    unsigned char *sc; 
....................  
....................    for (sc = s; *sc != 0; sc++); 
....................    return(sc - s); 
.................... } 
....................  
.................... /* standard template: char *strtok(char *s1, const char *s2). 
....................  
....................    Finds next token in s1 delimited by a character from separator 
....................    string s2 (which can be different from call to call).  First call 
....................    starts at beginning of s1 searching for first character NOT 
....................    contained in s2; returns 0 if none is found. 
....................    If one is found, it is the start of first token (return value). 
....................    Function then searches from there for a character contained in s2. 
....................    If none is found, current token extends to end of s1, and subsequent 
....................    searches for a token will return 0.  If one is found, it is 
....................    overwritten by '\0', which terminates current token.  Function saves 
....................    pointer to following character from which next search will start. 
....................    Each subsequent call, with 0 as first argument, starts searching 
....................    from saved pointer */ 
....................  
.................... unsigned char *strtok(unsigned char *s1, unsigned char *s2) 
.................... { 
....................    unsigned char *beg, *end; 
....................    static char *save; 
....................  
....................    beg = (s1)? s1: save; 
....................    beg += strspn(beg, s2); 
....................    if (*beg == '\0') 
....................       return(0); 
....................        
....................    end = strpbrk(beg, s2); 
....................    if (end != '\0') 
....................    { 
....................       *end = '\0'; 
....................       end++; 
....................       save = end; 
....................    } 
....................    else 
....................       save = beg + strlen(beg); 
....................     
....................    return(beg); 
.................... } 
....................  
.................... /*****************************************************************/ 
.................... /*Miscellaneous functions*/ 
.................... /* standard template 
.................... maps error number in errnum to an error message string 
.................... Returns: Pointer to string 
.................... */ 
.................... #ifdef _ERRNO 
.................... unsigned char * strerror(unsigned int8 errnum) 
.................... { 
.................... static unsigned char s[13]; 
.................... switch( errnum) 
.................... { 
.................... case 0: 
....................    strcpy(s,"no errors"); 
....................    return s; 
.................... case EDOM : 
....................    strcpy(s,"domain error"); 
....................    return s; 
.................... case ERANGE: 
....................    strcpy(s,"range error"); 
....................    return s; 
.................... } 
.................... } 
.................... #ENDIF 
....................  
.................... /* standard template: size_t stricmp(const char *s1, const char *s2). 
....................    Compares s1 to s2 ignoring case (upper vs. lower) */ 
....................  
.................... signed int8 stricmp(unsigned char *s1, unsigned char *s2) 
.................... { 
....................  for(; *s1==*s2||(isalpha(*s1)&&isalpha(*s2)&&(*s1==*s2+32||*s2==*s1+32)); 
....................     s1++, s2++) 
....................     if (*s1 == '\0') 
....................        return(0); 
....................  return((*s1 < *s2) ? -1: 1); 
.................... } 
....................  
....................  
.................... /* standard template: char *strlwr(char *s). 
....................    Replaces uppercase letters by lowercase; 
....................    returns pointer to new string s */ 
....................  
.................... unsigned char *strlwr(unsigned char *s) 
.................... { 
....................    unsigned char *p; 
....................  
....................    for (p = s; *p != '\0'; p++) 
....................       if (*p >= 'A' && *p <='Z') 
....................          *p += 'a' - 'A'; 
....................    return(s); 
.................... } 
....................  
.................... /* standard template: char *strupr(char *s). 
....................    Replaces lowercase letters by upercase; 
....................    returns pointer to new string s */ 
....................  
.................... unsigned char *strupr(unsigned char *s) 
.................... { 
....................    unsigned char *p; 
....................  
....................    for (p = s; *p != '\0'; p++) 
....................       if (*p >= 'a' && *p <='z') 
....................          *p -= 'a' - 'A'; 
....................    return(s); 
.................... } 
....................  
....................  
.................... /************************************************************/ 
....................  
....................  
.................... #endif 
....................  
.................... #ifndef getc 
.................... #define getc getch 
.................... #define getchar getch 
.................... #define puts(s) {printf(s); putchar(13); putchar(10);} 
.................... #define putc putchar 
.................... #endif 
.................... /* maps error number to an error message. Writes a sequence of characters to 
.................... stderr stream thus: if s is not null then string pointed to by s follwed by 
.................... a colon (:) and a space and the appropriate error message returned by strerror 
.................... function with argument errno 
....................  
.................... Returns: no value 
.................... */ 
....................  
.................... #ifdef _ERRNO 
.................... void perror(char *s) 
.................... { 
....................   if(s) 
....................   fprintf(STDERR,"%s: ",s); 
....................   fprintf(STDERR,"%s\r\n",strerror(errno)); 
.................... } 
.................... #endif 
.................... #endif 
....................  
.................... #include <stdlib.h> 
.................... /////////////////////////////////////////////////////////////////////////// 
.................... ////        (C) Copyright 1996,2007 Custom Computer Services           //// 
.................... //// This source code may only be used by licensed users of the CCS C  //// 
.................... //// compiler.  This source code may only be distributed to other      //// 
.................... //// licensed users of the CCS C compiler.  No other use, reproduction //// 
.................... //// or distribution is permitted without written permission.          //// 
.................... //// Derivative programs created using this software in object code    //// 
.................... //// form are not restricted in any way.                               //// 
.................... /////////////////////////////////////////////////////////////////////////// 
....................  
.................... #ifndef _STDLIB 
.................... #define _STDLIB 
....................  
.................... //--------------------------------------------------------------------------- 
.................... // Definitions and types 
.................... //--------------------------------------------------------------------------- 
....................  
.................... #ifndef RAND_MAX 
.................... #define RAND_MAX  32767    // The value of which is the maximum value 
....................                            // ... returned by the rand function 
.................... #endif 
....................  
....................  
.................... #IF (sizeof(int16*)>1) 
.................... #DEFINE LONG_POINTERS 1 
.................... #ELSE  
.................... #DEFINE LONG_POINTERS 0 
.................... #ENDIF 
....................  
.................... typedef struct { 
....................    signed int quot; 
....................    signed int rem; 
.................... } div_t; 
....................  
.................... typedef struct { 
....................    signed long quot; 
....................    signed long rem; 
.................... } ldiv_t; 
....................  
.................... #include <stddef.h> 
.................... /////////////////////////////////////////////////////////////////////////// 
.................... ////        (C) Copyright 1996,2003 Custom Computer Services           //// 
.................... //// This source code may only be used by licensed users of the CCS C  //// 
.................... //// compiler.  This source code may only be distributed to other      //// 
.................... //// licensed users of the CCS C compiler.  No other use, reproduction //// 
.................... //// or distribution is permitted without written permission.          //// 
.................... //// Derivative programs created using this software in object code    //// 
.................... //// form are not restricted in any way.                               //// 
.................... /////////////////////////////////////////////////////////////////////////// 
....................  
.................... #ifndef _STDDEF 
....................  
.................... #define _STDDEF 
....................  
.................... #if sizeof(unsigned int8 *)==1 
.................... #define ptrdiff_t unsigned int8 
.................... #else 
.................... #define ptrdiff_t unsigned int16 
.................... #endif 
....................  
.................... #if defined(__PCB__) || defined(__PCM__) 
.................... #define size_t unsigned int8 
.................... #else 
.................... #define size_t unsigned int16 
.................... #endif 
.................... #define wchar_t char 
.................... #define NULL 0 
....................  
.................... #define offsetof(s,f) (offsetofbit(s,f)/8) 
....................  
.................... #endif 
....................  
....................  
.................... //--------------------------------------------------------------------------- 
.................... // String conversion functions 
.................... //--------------------------------------------------------------------------- 
....................  
.................... /* Standard template: signed int  atoi(char * s) 
....................  * converts the initial portion of the string s to a signed int 
....................  * returns the converted value if any, 0 otherwise 
....................  */ 
.................... signed int atoi(char *s); 
....................  
.................... /* Syntax: signed int32  atoi32(char * s) 
....................    converts the initial portion of the string s to a signed int32 
....................    returns the converted value if any, 0 otherwise*/ 
.................... #if (sizeof(long)==4) 
....................  #define atoi32(s) atol(s) 
.................... #else  
....................  signed int32 atoi32(char *s); 
.................... #endif 
....................  
.................... #if defined(__PCD__) 
.................... // The following functions only work on the 24 bit compiler 
.................... // for the 30F, 33F, 24F and 24H parts 
.................... /* Syntax: signed int48  atoi48(char * s) 
....................    converts the initial portion of the string s to a signed int48 
....................    returns the converted value if any, 0 otherwise*/ 
....................     
.................... signed int48 atoi48(char *s); 
....................  
.................... /* Syntax: signed int64  atoi64(char * s) 
....................    converts the initial portion of the string s to a signed int64 
....................    returns the converted value if any, 0 otherwise*/ 
.................... signed int64 atoi64(char *s); 
.................... #endif 
....................  
.................... /* Syntax: char *  itoa(signed int32 num, int8 base, char * s) 
....................    converts the signed int32 to a string and 
....................    returns the converted value if any, 0 otherwise*/ 
.................... char * itoa(signed int32 num, unsigned int base, char * s); 
....................  
.................... /* Standard template: signed int16  atol(char * s) 
....................  * converts the initial portion of the string s to a signed int16 
....................  * returns the converted value if any, 0 otherwise 
....................  */ 
.................... signed long atol(char *s); 
....................  
.................... /* Standard template: int16 strtoul(char * s,char *endptr,signed int base) 
....................  * converts the initial portion of the string s, represented as an 
....................  * integral value of radix base  to a signed long. 
....................  * Returns the converted value if any, 0 otherwise 
....................  * the final string is returned in the endptr, if endptr is not null 
....................  */ 
.................... signed long strtol(char *s,char *endptr, signed int base); 
....................  
.................... /* Standard template: int16 strtoul(char * s,char *endptr,signed int base) 
....................  * converts the initial portion of the string s, represented as an 
....................  * integral value of radix base to a unsigned long. 
....................  * returns the converted value if any, 0 otherwise 
....................  * the final string is returned in the endptr, if endptr is not null 
....................  */ 
.................... unsigned long strtoul(char *s,char *endptr, signed int base); 
....................  
.................... /* Standart template: float strtof(char * s,char *endptr) 
....................                       float48 strtof48(char *s,char *endptr); 
....................                       float64 strtod(char *s,char *endptr); 
....................  * converts the initial portion of the string s to a float32, float48 or float64, 
....................  * returns the converted value if any, 0 otherwise 
....................  * the final string is returned in the endptr, if endptr is not null                    
.................... */ 
.................... float strtof(char *s,char *endptr); 
.................... #if defined(__PCD__) 
.................... float48 strtof48(char *s,char *endptr); 
.................... float64 strtod(char *s,char *endptr); 
.................... #else 
.................... //provided for compatibility 
.................... #define strtof48(s, e) strtof(s, e) 
.................... #define strtod(s, e) strtof(s, e) 
.................... #endif 
....................  
.................... /* Standard template: float32 atof(char * s) 
....................  * converts the initial portion of the string s to a float. 
....................  * returns the converted value if any, 0 otherwise 
....................  */ 
.................... #define atof(s)   strtof(s, 0) 
....................  
.................... #if defined(__PCD__) 
.................... // The following functions only work on the 24 bit compiler 
.................... // for the 30F, 33F, 24F and 24H parts 
....................  
.................... /* Standard template: float48 atof48(char * s) 
....................  * converts the initial portion of the string s to a float. 
....................  * returns the converted value if any, 0 otherwise 
....................  */ 
.................... #define atof48(s) strtof48(s, 0) 
....................  
.................... /* Standard template: float64 atof64(char * s) 
....................  * converts the initial portion of the string s to a float. 
....................  * returns the converted value if any, 0 otherwise 
....................  */ 
.................... #define atof64(s) strtod(s, 0) 
.................... #endif 
....................  
.................... /* Standard template: float32 atoe(char * s) 
....................  * converts the initial portion of the string s to a float. 
....................  * returns the converted value if any, 0 otherwise 
....................  * also handles E format numbers 
....................  */ 
.................... #if !defined(__PCD__) 
.................... float atoe(char * s); 
.................... #endif 
....................  
.................... #if defined(__PCD__) 
.................... float32 atoe(char * s); 
.................... #endif 
....................  
.................... //--------------------------------------------------------------------------- 
.................... // Pseudo-random sequence generation functions 
.................... //--------------------------------------------------------------------------- 
....................  
.................... /* The rand function computes a sequence of pseudo-random integers in 
....................  * the range 0 to RAND_MAX 
....................  * 
....................  * Parameters: 
....................  *       (none) 
....................  * 
....................  * Returns: 
....................  *       The pseudo-random integer 
....................  */ 
.................... unsigned int16 rand(void); 
....................  
.................... /* The srand function uses the argument as a seed for a new sequence of 
....................  * pseudo-random numbers to be returned by subsequent calls to rand. 
....................  * 
....................  * Parameters: 
....................  *       [in] seed: The seed value to start from. You might need to pass 
....................  * 
....................  * Returns: 
....................  *       (none) 
....................  * 
....................  * Remarks 
....................  *          The srand function sets the starting point for generating 
....................  *       a series of pseudorandom integers. To reinitialize the 
....................  *       generator, use 1 as the seed argument. Any other value for 
....................  *       seed sets the generator to a random starting point. rand 
....................  *       retrieves the pseudorandom numbers that are generated. 
....................  *       Calling rand before any call to srand generates the same 
....................  *       sequence as calling srand with seed passed as 1. 
....................  *          Usually, you need to pass a time here from outer source 
....................  *       so that the numbers will be different every time you run. 
....................  */ 
.................... void srand(unsigned int32 seed); 
....................  
.................... //--------------------------------------------------------------------------- 
.................... // Memory management functions 
.................... //--------------------------------------------------------------------------- 
....................  
.................... // Comming soon 
....................  
.................... //--------------------------------------------------------------------------- 
.................... // Communication with the environment 
.................... //--------------------------------------------------------------------------- 
....................  
.................... /* The function returns 0 always 
....................  */ 
.................... signed int8 system(char *string); 
....................  
.................... //--------------------------------------------------------------------------- 
.................... // Searching and sorting utilities 
.................... //--------------------------------------------------------------------------- 
....................  
.................... /* Performs a binary search of a sorted array.. 
....................  * 
....................  * Parameters: 
....................  *       [in] key: Object to search for 
....................  *       [in] base: Pointer to base of search data 
....................  *       [in] num: Number of elements 
....................  *       [in] width: Width of elements 
....................  *       [in] compare: Function that compares two elements 
....................  * 
....................  * Returns: 
....................  *       bsearch returns a pointer to an occurrence of key in the array pointed 
....................  *       to by base. If key is not found, the function returns NULL. If the 
....................  *       array is not in order or contains duplicate records with identical keys, 
....................  *       the result is unpredictable. 
....................  */ 
.................... //void *bsearch(const void *key, const void *base, size_t num, size_t width, 
.................... //              int (*compare)(const void *, const void *)); 
....................  
.................... /* Performs the shell-metzner sort (not the quick sort algorithm). The contents 
....................  * of the array are sorted into ascending order according to a comparison 
....................  * function pointed to by compar. 
....................  * 
....................  * Parameters: 
....................  *       [in] base: Pointer to base of search data 
....................  *       [in] num: Number of elements 
....................  *       [in] width: Width of elements 
....................  *       [in] compare: Function that compares two elements 
....................  * 
....................  * Returns: 
....................  *       (none) 
....................  */ 
.................... //void *qsort(const void *base, size_t num, size_t width, 
.................... //              int (*compare)(const void *, const void *)); 
....................  
.................... //--------------------------------------------------------------------------- 
.................... // Integer arithmetic functions 
.................... //--------------------------------------------------------------------------- 
....................  
.................... #define labs abs 
....................  
.................... div_t div(signed int numer, signed int denom); 
.................... ldiv_t ldiv(signed long numer, signed long denom); 
....................  
.................... //--------------------------------------------------------------------------- 
.................... // Multibyte character functions 
.................... //--------------------------------------------------------------------------- 
....................  
.................... // Not supported 
....................  
.................... //--------------------------------------------------------------------------- 
.................... // Multibyte string functions 
.................... //--------------------------------------------------------------------------- 
....................  
.................... // Not supported 
....................  
....................  
.................... //--------------------------------------------------------------------------- 
.................... // Internal implementation 
.................... //--------------------------------------------------------------------------- 
....................  
.................... #include <stddef.h> 
.................... /////////////////////////////////////////////////////////////////////////// 
.................... ////        (C) Copyright 1996,2003 Custom Computer Services           //// 
.................... //// This source code may only be used by licensed users of the CCS C  //// 
.................... //// compiler.  This source code may only be distributed to other      //// 
.................... //// licensed users of the CCS C compiler.  No other use, reproduction //// 
.................... //// or distribution is permitted without written permission.          //// 
.................... //// Derivative programs created using this software in object code    //// 
.................... //// form are not restricted in any way.                               //// 
.................... /////////////////////////////////////////////////////////////////////////// 
....................  
.................... #ifndef _STDDEF 
....................  
.................... #define _STDDEF 
....................  
.................... #if sizeof(unsigned int8 *)==1 
.................... #define ptrdiff_t unsigned int8 
.................... #else 
.................... #define ptrdiff_t unsigned int16 
.................... #endif 
....................  
.................... #if defined(__PCB__) || defined(__PCM__) 
.................... #define size_t unsigned int8 
.................... #else 
.................... #define size_t unsigned int16 
.................... #endif 
.................... #define wchar_t char 
.................... #define NULL 0 
....................  
.................... #define offsetof(s,f) (offsetofbit(s,f)/8) 
....................  
.................... #endif 
....................  
.................... #include <string.h> 
.................... //////////////////////////////////////////////////////////////////////////// 
.................... ////        (C) Copyright 1996,2008 Custom Computer Services            //// 
.................... //// This source code may only be used by licensed users of the CCS C   //// 
.................... //// compiler.  This source code may only be distributed to other       //// 
.................... //// licensed users of the CCS C compiler.  No other use, reproduction  //// 
.................... //// or distribution is permitted without written permission.           //// 
.................... //// Derivative programs created using this software in object code     //// 
.................... //// form are not restricted in any way.                                //// 
.................... //////////////////////////////////////////////////////////////////////////// 
....................  
.................... #ifndef _STRING 
.................... #define _STRING 
.................... #include <stddef.h> 
.................... #include <ctype.h> 
....................  
....................  
....................  
.................... ////////////////////////////////////////////// 
.................... //// Uncomment the following define to    //// 
.................... //// allow some functions to use a        //// 
.................... //// quicker algorithm, but use more ROM  //// 
.................... ////                                      //// 
.................... //// #define FASTER_BUT_MORE_ROM          //// 
.................... ////////////////////////////////////////////// 
....................  
....................  
....................  
.................... /*Copying functions*/ 
.................... /* standard template: 
....................    void *memmove(void *s1, void *s2, size_t n). 
....................    Copies max of n characters safely (not following ending '\0') 
....................    from s2 in s1; if s2 has less than n characters, appends 0 */ 
....................  
.................... unsigned char *memmove(void *s1,void *s2,size_t n) 
.................... { 
....................    unsigned char *sc1; 
....................    unsigned char *sc2; 
....................    sc1=s1; 
....................    sc2=s2; 
....................    if(sc2<sc1 && sc1 <sc2 +n) 
....................       for(sc1+=n,sc2+=n;0<n;--n) 
....................          *--sc1=*--sc2; 
....................    else 
....................       for(;0<n;--n) 
....................          *sc1++=*sc2++; 
....................   return s1; 
....................   } 
....................  
.................... /* Standard template: char *strcpy(char *s1, const char *s2) 
....................    copies the string s2 including the null character to s1. 
....................    This is a compiler built in to handle the different address 
....................    spaces */ 
....................  
.................... #define strcopy strcpy 
....................  
.................... /* standard template: 
....................    char *strncpy(char *s1, const char *s2, size_t n). 
....................    Copies max of n characters (not following ending '\0') 
....................    from s2 in s1; if s2 has less than n characters, appends 0 */ 
....................  
.................... unsigned char *strncpy(unsigned char *s1, unsigned char *s2, size_t n) 
.................... { 
....................   unsigned char *s; 
....................  
....................   for (s = s1; n > 0 && *s2 != '\0'; n--) 
....................      *s++ = *s2++; 
....................   for (; n > 0; n--) 
....................      *s++ = '\0'; 
....................  
....................   return(s1); 
.................... } 
.................... /***********************************************************/ 
....................  
.................... /*concatenation functions*/ 
.................... /* standard template: char *strcat(char *s1, const char *s2) 
.................... appends s2 to s1*/ 
....................  
.................... unsigned char *strcat(unsigned char *s1, unsigned char *s2) 
.................... { 
....................    unsigned char *s; 
....................  
....................    for (s = s1; *s != '\0'; ++s); 
....................    while(*s2 != '\0') 
....................    { 
....................       *s = *s2; 
....................       ++s; 
....................       ++s2; 
....................    } 
....................  
....................    *s = '\0'; 
....................    return(s1); 
.................... } 
.................... /* standard template: char *strncat(char *s1, char *s2,size_t n) 
.................... appends not more than n characters from s2 to s1*/ 
....................  
.................... unsigned char *strncat(unsigned char *s1, unsigned char *s2, size_t n) 
.................... { 
....................    unsigned char *s; 
....................  
....................    for (s = s1; *s != '\0'; ++s); 
....................    while(*s2 != '\0' && 0<n) 
....................    { 
....................       *s = *s2; 
....................       ++s; 
....................       ++s2; 
....................       --n; 
....................    } 
....................  
....................    *s = '\0'; 
....................    return(s1); 
.................... } 
....................  
.................... /***********************************************************/ 
....................  
....................  
.................... /*comparison functions*/ 
.................... /* standard template: signed int memcmp(void *s1, void *s2). 
....................    Compares s1 & s2; returns -1 if s1<s2, 0 if s1=s2, 1 if s1>s2 */ 
....................  
.................... signed int8 memcmp(void * s1,void *s2,size_t n) 
.................... { 
.................... unsigned char *su1, *su2; 
.................... for(su1=s1, su2=s2; 0<n; ++su1, ++su2, --n) 
.................... { 
....................    if(*su1!=*su2) 
....................       return ((*su1<*su2)?-1:1); 
.................... } 
.................... return 0; 
.................... } 
....................  
.................... /* standard template: int strcmp(const char *s1, const char *s2). 
....................    Compares s1 & s2; returns -1 if s1<s2, 0 if s1=s2, 1 if s1>s2 */ 
....................  
.................... signed int8 strcmp(unsigned char *s1, unsigned char *s2) 
.................... { 
....................    for (; *s1 == *s2; s1++, s2++) 
....................       if (*s1 == '\0') 
....................          return(0); 
....................    return((*s1 < *s2) ? -1: 1); 
.................... } 
.................... /* standard template: int strcoll(const char *s1, const char *s2). 
....................    Compares s1 & s2; returns -1 if s1<s2, 0 if s1=s2, 1 if s1>s2 */ 
....................  
.................... signed int8 strcoll(unsigned char *s1, unsigned char *s2) 
.................... { 
....................    for (; *s1 == *s2; s1++, s2++) 
....................       if (*s1 == '\0') 
....................          return(0); 
....................    return((*s1 < *s2) ? -1: 1); 
.................... } 
....................  
.................... /* standard template: 
....................    int strncmp(const char *s1, const char *s2, size_t n). 
....................    Compares max of n characters (not following 0) from s1 to s2; 
....................    returns same as strcmp */ 
....................  
.................... signed int8 strncmp(unsigned char *s1, unsigned char *s2, size_t n) 
.................... { 
....................    for (; n > 0; s1++, s2++, n--) 
....................       if (*s1 != *s2) 
....................          return((*s1 <*s2) ? -1: 1); 
....................       else if (*s1 == '\0') 
....................          return(0); 
....................    return(0); 
.................... } 
.................... /* standard template: 
....................    int strxfrm(const char *s1, const char *s2, size_t n). 
....................    transforms maximum of n characters from s2 and places them into s1, returns number of chars written ot s1. 
....................    if s1 is NULL and n is 0, then it returns the length of s2.*/ 
.................... size_t strxfrm(unsigned char *s1, unsigned char *s2, size_t n) 
.................... { 
....................    unsigned char c; 
....................    unsigned int8 n1; 
....................     
....................    if (!s1 && !n) 
....................       n = -1; //find length 
....................  
....................    n1 = 0; 
....................     
....................    for (; n1 < n; n1++) 
....................    { 
....................       c = *s2++; 
....................       if (!c) 
....................          break; 
....................       if (s1) 
....................          *s1++ = c; 
....................    } 
....................  
....................   return(n1); 
.................... } 
....................  
....................  
....................  
....................  
....................  
.................... /***********************************************************/ 
.................... /*Search functions*/ 
.................... /* standard template: void *memchr(const char *s, int c). 
....................    Finds first occurrence of c in n characters of s */ 
....................  
.................... unsigned char *memchr(void *s,unsigned int8 c,size_t n) 
.................... { 
....................    unsigned char uc; 
....................    unsigned char *su; 
....................    uc=c; 
....................    for(su=s;0<n;++su,--n) 
....................       if(*su==uc) 
....................       return su; 
....................    return NULL; 
.................... } 
....................  
.................... /* standard template: char *strchr(const char *s, int c). 
....................    Finds first occurrence of c in s */ 
....................  
.................... unsigned char *strchr(unsigned char *s, unsigned int8 c) 
.................... { 
....................    for (; *s != c; s++) 
....................       if (*s == '\0') 
....................          return(0); 
....................    return(s); 
.................... } 
.................... /* standard template: 
....................    size_t strcspn(const char *s1, const char *s2). 
....................    Computes length of max initial segment of s1 that 
....................    consists entirely of characters NOT from s2*/ 
....................  
.................... unsigned int8  strcspn(unsigned char *s1, unsigned char *s2) 
.................... { 
....................    unsigned char *sc1, *sc2; 
....................  
....................    for (sc1 = s1; *sc1 != 0; sc1++) 
....................       for (sc2 = s2; *sc2 != 0; sc2++) 
....................          if (*sc1 == *sc2) 
....................             return(sc1 - s1); 
....................    return(sc1 - s1); 
.................... } 
.................... /* standard template: 
....................    char *strpbrk(const char *s1, const char *s2). 
....................    Locates first occurence of any character from s2 in s1; 
....................    returns s1 if s2 is empty string */ 
....................  
.................... unsigned char *strpbrk(unsigned char *s1, unsigned char *s2) 
.................... { 
....................    unsigned char *sc1, *sc2; 
....................  
....................    for (sc1 = s1; *sc1 != 0; sc1++) 
....................       for (sc2 = s2; *sc2 != 0; sc2++) 
....................          if (*sc1 == *sc2) 
....................             return(sc1); 
....................    return(0); 
.................... } 
....................  
....................  
.................... /* standard template: char *strrchr(const char *s, int c). 
....................    Finds last occurrence of c in s */ 
....................  
.................... unsigned char *strrchr(unsigned char *s, unsigned int8 c) 
.................... { 
....................    unsigned char *p; 
....................  
....................    for (p = 0; ; s++) 
....................    { 
....................       if (*s == c) 
....................          p = s; 
....................       if (*s == '\0') 
....................          return(p); 
....................    } 
.................... } 
.................... /* computes length of max initial segment of s1 consisting 
....................    entirely of characters from s2 */ 
....................  
.................... unsigned int8  strspn(unsigned char *s1, unsigned char *s2) 
.................... { 
....................    unsigned char *sc1, *sc2; 
....................  
....................    for (sc1 = s1; *sc1 != 0; sc1++) 
....................       for (sc2 = s2; ; sc2++) 
....................     if (*sc2 == '\0') 
....................        return(sc1 - s1); 
....................          else if (*sc1 == *sc2) 
....................             break; 
....................    return(sc1 - s1); 
.................... } 
.................... /* standard template: 
....................    char *strstr(const char *s1, const char *s2); 
....................    Locates first occurence of character sequence s2 in s1; 
....................    returns 0 if s2 is empty string 
....................  
....................    Uncomment #define FASTER_BUT_MORE_ROM at the top of the 
....................    file to use the faster algorithm */ 
.................... unsigned char *strstr(unsigned char *s1, unsigned char *s2) 
.................... { 
....................    unsigned char *s, *t; 
....................  
....................    #ifdef FASTER_BUT_MORE_ROM 
....................    if (*s2 == '\0') 
....................          return(s1); 
....................    #endif 
....................  
....................    while (*s1) 
....................    { 
....................       for(s = s1, t = s2; *t && (*s == *t); ++s, ++t); 
....................  
....................       if (*t == '\0') 
....................          return s1; 
....................       ++s1; 
....................       #ifdef FASTER_BUT_MORE_ROM 
....................          while(*s1 != '\0' && *s1 != *s2) 
....................             ++s1; 
....................       #endif 
....................    } 
....................    return 0; 
.................... } 
....................  
.................... /* standard template: size_t strlen(const char *s). 
....................    Computes length of s1 (preceding terminating 0) */ 
....................  
.................... size_t strlen(unsigned char *s) 
.................... { 
....................    unsigned char *sc; 
....................  
....................    for (sc = s; *sc != 0; sc++); 
....................    return(sc - s); 
.................... } 
....................  
.................... /* standard template: char *strtok(char *s1, const char *s2). 
....................  
....................    Finds next token in s1 delimited by a character from separator 
....................    string s2 (which can be different from call to call).  First call 
....................    starts at beginning of s1 searching for first character NOT 
....................    contained in s2; returns 0 if none is found. 
....................    If one is found, it is the start of first token (return value). 
....................    Function then searches from there for a character contained in s2. 
....................    If none is found, current token extends to end of s1, and subsequent 
....................    searches for a token will return 0.  If one is found, it is 
....................    overwritten by '\0', which terminates current token.  Function saves 
....................    pointer to following character from which next search will start. 
....................    Each subsequent call, with 0 as first argument, starts searching 
....................    from saved pointer */ 
....................  
.................... unsigned char *strtok(unsigned char *s1, unsigned char *s2) 
.................... { 
....................    unsigned char *beg, *end; 
....................    static char *save; 
....................  
....................    beg = (s1)? s1: save; 
....................    beg += strspn(beg, s2); 
....................    if (*beg == '\0') 
....................       return(0); 
....................        
....................    end = strpbrk(beg, s2); 
....................    if (end != '\0') 
....................    { 
....................       *end = '\0'; 
....................       end++; 
....................       save = end; 
....................    } 
....................    else 
....................       save = beg + strlen(beg); 
....................     
....................    return(beg); 
.................... } 
....................  
.................... /*****************************************************************/ 
.................... /*Miscellaneous functions*/ 
.................... /* standard template 
.................... maps error number in errnum to an error message string 
.................... Returns: Pointer to string 
.................... */ 
.................... #ifdef _ERRNO 
.................... unsigned char * strerror(unsigned int8 errnum) 
.................... { 
.................... static unsigned char s[13]; 
.................... switch( errnum) 
.................... { 
.................... case 0: 
....................    strcpy(s,"no errors"); 
....................    return s; 
.................... case EDOM : 
....................    strcpy(s,"domain error"); 
....................    return s; 
.................... case ERANGE: 
....................    strcpy(s,"range error"); 
....................    return s; 
.................... } 
.................... } 
.................... #ENDIF 
....................  
.................... /* standard template: size_t stricmp(const char *s1, const char *s2). 
....................    Compares s1 to s2 ignoring case (upper vs. lower) */ 
....................  
.................... signed int8 stricmp(unsigned char *s1, unsigned char *s2) 
.................... { 
....................  for(; *s1==*s2||(isalpha(*s1)&&isalpha(*s2)&&(*s1==*s2+32||*s2==*s1+32)); 
....................     s1++, s2++) 
....................     if (*s1 == '\0') 
....................        return(0); 
....................  return((*s1 < *s2) ? -1: 1); 
.................... } 
....................  
....................  
.................... /* standard template: char *strlwr(char *s). 
....................    Replaces uppercase letters by lowercase; 
....................    returns pointer to new string s */ 
....................  
.................... unsigned char *strlwr(unsigned char *s) 
.................... { 
....................    unsigned char *p; 
....................  
....................    for (p = s; *p != '\0'; p++) 
....................       if (*p >= 'A' && *p <='Z') 
....................          *p += 'a' - 'A'; 
....................    return(s); 
.................... } 
....................  
.................... /* standard template: char *strupr(char *s). 
....................    Replaces lowercase letters by upercase; 
....................    returns pointer to new string s */ 
....................  
.................... unsigned char *strupr(unsigned char *s) 
.................... { 
....................    unsigned char *p; 
....................  
....................    for (p = s; *p != '\0'; p++) 
....................       if (*p >= 'a' && *p <='z') 
....................          *p -= 'a' - 'A'; 
....................    return(s); 
.................... } 
....................  
....................  
.................... /************************************************************/ 
....................  
....................  
.................... #endif 
....................  
....................  
.................... div_t div(signed int numer, signed int denom) 
.................... { 
....................    div_t val; 
....................    val.quot = numer / denom; 
....................    val.rem = numer - (denom * val.quot); 
....................    return (val); 
.................... } 
....................  
.................... ldiv_t ldiv(signed long numer, signed long denom) 
.................... { 
....................    ldiv_t val; 
....................  
....................    val.quot = numer / denom; 
....................    val.rem = numer - (denom * val.quot); 
....................    return (val); 
.................... } 
....................  
.................... #if defined(__PCD__) 
.................... float32 atoe(char * s) 
.................... { 
....................    float32 pow10 = 1.0; 
....................    float32 result = 0.0; 
....................    unsigned int8 sign = 0; 
....................    unsigned int8 expsign = 0; 
....................    char c; 
....................    unsigned int8 ptr = 0; 
....................    unsigned int8 i; 
....................    float32 exp = 1.0; 
....................    unsigned int8 expcnt = 0; 
....................  
....................    c = s[ptr++]; 
....................  
....................    if ((c>='0' && c<='9') || c=='+' || c=='-' || c=='.' || c=='E' || c=='e') { 
....................       if(c == '-') { 
....................          sign = 1; 
....................          c = s[ptr++]; 
....................       } 
....................       if(c == '+') 
....................          c = s[ptr++]; 
....................  
....................       while((c >= '0' && c <= '9')) { 
....................          result = 10*result + c - '0'; 
....................          c = s[ptr++]; 
....................       } 
....................  
....................       if (c == '.') { 
....................          c = s[ptr++]; 
....................          while((c >= '0' && c <= '9')) { 
....................              pow10 = pow10*10; 
....................              result += (c - '0')/pow10; 
....................              c = s[ptr++]; 
....................          } 
....................       } 
....................  
....................       // Handling the exponent 
....................       if (c=='e' || c=='E') { 
....................          c = s[ptr++]; 
....................  
....................          if(c == '-') { 
....................             expsign = 1; 
....................             c = s[ptr++]; 
....................          } 
....................          if(c == '+') 
....................             c = s[ptr++]; 
....................  
....................          while((c >= '0' && c <= '9')) { 
....................             expcnt = 10*expcnt + c - '0'; 
....................             c = s[ptr++]; 
....................          } 
....................  
....................          for(i=0;i<expcnt;i++) 
....................             exp*=10; 
....................  
....................          if(expsign==1) 
....................             result/=exp; 
....................          else 
....................             result*=exp; 
....................       } 
....................    } 
....................  
....................    if (sign == 1) 
....................       result = -1*result; 
....................    return(result); 
.................... } 
.................... #endif 
....................  
.................... #if !defined(__PCD__) 
.................... float atoe(char * s) 
.................... { 
....................    float pow10 = 1.0; 
....................    float result = 0.0; 
....................    unsigned int8 sign = 0; 
....................    unsigned int8 expsign = 0; 
....................    char c; 
....................    unsigned int8 ptr = 0; 
....................    unsigned int8 i; 
....................    float exp = 1.0; 
....................    unsigned int8 expcnt = 0; 
....................  
....................    c = s[ptr++]; 
....................  
....................    if ((c>='0' && c<='9') || c=='+' || c=='-' || c=='.' || c=='E' || c=='e') { 
....................       if(c == '-') { 
....................          sign = 1; 
....................          c = s[ptr++]; 
....................       } 
....................       if(c == '+') 
....................          c = s[ptr++]; 
....................  
....................       while((c >= '0' && c <= '9')) { 
....................          result = 10*result + c - '0'; 
....................          c = s[ptr++]; 
....................       } 
....................  
....................       if (c == '.') { 
....................          c = s[ptr++]; 
....................          while((c >= '0' && c <= '9')) { 
....................              pow10 = pow10*10; 
....................              result += (c - '0')/pow10; 
....................              c = s[ptr++]; 
....................          } 
....................       } 
....................  
....................       // Handling the exponent 
....................       if (c=='e' || c=='E') { 
....................          c = s[ptr++]; 
....................  
....................          if(c == '-') { 
....................             expsign = 1; 
....................             c = s[ptr++]; 
....................          } 
....................          if(c == '+') 
....................             c = s[ptr++]; 
....................  
....................          while((c >= '0' && c <= '9')) { 
....................             expcnt = 10*expcnt + c - '0'; 
....................             c = s[ptr++]; 
....................          } 
....................  
....................          for(i=0;i<expcnt;i++) 
....................             exp*=10; 
....................  
....................          if(expsign==1) 
....................             result/=exp; 
....................          else 
....................             result*=exp; 
....................       } 
....................    } 
....................  
....................    if (sign == 1) 
....................       result = -1*result; 
....................    return(result); 
.................... } 
.................... #endif 
....................  
.................... signed int atoi(char *s) 
.................... { 
....................    signed int result; 
....................    unsigned int sign, base, index; 
....................    char c; 
....................  
....................    index = 0; 
....................    sign = 0; 
....................    base = 10; 
....................    result = 0; 
....................  
....................    if (!s) 
....................       return 0; 
....................    // Omit all preceeding alpha characters 
....................    c = s[index++]; 
....................  
....................    // increase index if either positive or negative sign is detected 
....................    if (c == '-') 
....................    { 
....................       sign = 1;         // Set the sign to negative 
....................       c = s[index++]; 
....................    } 
....................    else if (c == '+') 
....................    { 
....................       c = s[index++]; 
....................    } 
....................  
....................    if (c >= '0' && c <= '9') 
....................    { 
....................  
....................       // Check for hexa number 
....................       if (c == '0' && (s[index] == 'x' || s[index] == 'X')) 
....................       { 
....................          base = 16; 
....................          index++; 
....................          c = s[index++]; 
....................       } 
....................  
....................       // The number is a decimal number 
....................       if (base == 10) 
....................       { 
....................          while (c >= '0' && c <= '9') 
....................          { 
....................             result = 10*result + (c - '0'); 
....................             c = s[index++]; 
....................          } 
....................       } 
....................       else if (base == 16)    // The number is a hexa number 
....................       { 
....................          c = toupper(c); 
....................          while ( (c >= '0' && c <= '9') || (c >= 'A' && c<='F')) 
....................          { 
....................             if (c >= '0' && c <= '9') 
....................                result = (result << 4) + (c - '0'); 
....................             else 
....................                result = (result << 4) + (c - 'A' + 10); 
....................  
....................             c = s[index++]; 
....................             c = toupper(c); 
....................          } 
....................       } 
....................    } 
....................  
....................    if (sign == 1 && base == 10) 
....................        result = -result; 
....................  
....................    return(result); 
.................... } 
....................  
.................... signed long atol(char *s) 
.................... { 
....................    signed long result; 
....................    unsigned int sign, base, index; 
....................    char c; 
....................  
....................    index = 0; 
....................    sign = 0; 
....................    base = 10; 
....................    result = 0; 
....................  
....................    if (!s) 
....................       return 0; 
....................    c = s[index++]; 
....................  
....................    // increase index if either positive or negative sign is detected 
....................    if (c == '-') 
....................    { 
....................       sign = 1;         // Set the sign to negative 
....................       c = s[index++]; 
....................    } 
....................    else if (c == '+') 
....................    { 
....................       c = s[index++]; 
....................    } 
....................  
....................    if (c >= '0' && c <= '9') 
....................    { 
....................       if (c == '0' && (s[index] == 'x' || s[index] == 'X')) 
....................       { 
....................          base = 16; 
....................          index++; 
....................          c = s[index++]; 
....................       } 
....................  
....................       // The number is a decimal number 
....................       if (base == 10) 
....................       { 
....................          while (c >= '0' && c <= '9') 
....................          { 
....................             result = 10*result + (c - '0'); 
....................             c = s[index++]; 
....................          } 
....................       } 
....................       else if (base == 16)    // The number is a hexa number 
....................       { 
....................          c = toupper(c); 
....................          while ( (c >= '0' && c <= '9') || (c >= 'A' && c <='F')) 
....................          { 
....................             if (c >= '0' && c <= '9') 
....................                result = (result << 4) + (c - '0'); 
....................             else 
....................                result = (result << 4) + (c - 'A' + 10); 
....................  
....................             c = s[index++];c = toupper(c); 
....................          } 
....................       } 
....................    } 
....................  
....................    if (base == 10 && sign == 1) 
....................       result = -result; 
....................  
....................    return(result); 
.................... } 
....................  
.................... /* A fast routine to multiply by 10 
....................  */ 
.................... signed int32 mult_with10(int32 num) 
.................... { 
....................    return ( (num << 1) + (num << 3) ); 
.................... } 
....................  
.................... #if sizeof(long)==2 
.................... signed int32 atoi32(char *s) 
.................... { 
....................    signed int32 result; 
....................    int8 sign, base, index; 
....................    char c; 
....................  
....................    index = 0; 
....................    sign = 0; 
....................    base = 10; 
....................    result = 0; 
....................  
....................    if (!s) 
....................       return 0; 
....................    c = s[index++]; 
....................  
....................    // increase index if either positive or negative sign is detected 
....................    if (c == '-') 
....................    { 
....................       sign = 1;         // Set the sign to negative 
....................       c = s[index++]; 
....................    } 
....................    else if (c == '+') 
....................    { 
....................       c = s[index++]; 
....................    } 
....................  
....................    if (c >= '0' && c <= '9') 
....................    { 
....................       if (c == '0' && (s[index] == 'x' || s[index] == 'X')) 
....................       { 
....................          base = 16; 
....................          index++; 
....................          c = s[index++]; 
....................       } 
....................  
....................       // The number is a decimal number 
....................       if (base == 10) 
....................       { 
....................          while (c >= '0' && c <= '9') { 
....................             result = (result << 1) + (result << 3);  // result *= 10; 
....................             result += (c - '0'); 
....................             c = s[index++]; 
....................          } 
....................       } 
....................       else if (base == 16)    // The number is a hexa number 
....................       { 
....................          c = toupper(c); 
....................          while ((c >= '0' && c <= '9') || (c >= 'A' && c <='F')) 
....................          { 
....................             if (c >= '0' && c <= '9') 
....................                result = (result << 4) + (c - '0'); 
....................             else 
....................                result = (result << 4) + (c - 'A' + 10); 
....................  
....................             c = s[index++];c = toupper(c); 
....................          } 
....................       } 
....................    } 
....................  
....................    if (base == 10 && sign == 1) 
....................       result = -result; 
....................  
....................    return(result); 
.................... } 
.................... #endif 
....................  
.................... #if defined(__PCD__) 
....................  
.................... signed int48 atoi48(char *s) 
.................... { 
....................    signed int48 result; 
....................    int8 sign, base, index; 
....................    char c; 
....................  
....................    index = 0; 
....................    sign = 0; 
....................    base = 10; 
....................    result = 0; 
....................  
....................    if (!s) 
....................       return 0; 
....................    c = s[index++]; 
....................  
....................    // increase index if either positive or negative sign is detected 
....................    if (c == '-') 
....................    { 
....................       sign = 1;         // Set the sign to negative 
....................       c = s[index++]; 
....................    } 
....................    else if (c == '+') 
....................    { 
....................       c = s[index++]; 
....................    } 
....................  
....................    if (c >= '0' && c <= '9') 
....................    { 
....................       if (c == '0' && (s[index] == 'x' || s[index] == 'X')) 
....................       { 
....................          base = 16; 
....................          index++; 
....................          c = s[index++]; 
....................       } 
....................  
....................       // The number is a decimal number 
....................       if (base == 10) 
....................       { 
....................          while (c >= '0' && c <= '9') { 
....................             result = (result << 1) + (result << 3);  // result *= 10; 
....................             result += (c - '0'); 
....................             c = s[index++]; 
....................          } 
....................       } 
....................       else if (base == 16)    // The number is a hexa number 
....................       { 
....................          c = toupper(c); 
....................          while ((c >= '0' && c <= '9') || (c >= 'A' && c <='F')) 
....................          { 
....................             if (c >= '0' && c <= '9') 
....................                result = (result << 4) + (c - '0'); 
....................             else 
....................                result = (result << 4) + (c - 'A' + 10); 
....................  
....................             c = s[index++];c = toupper(c); 
....................          } 
....................       } 
....................    } 
....................  
....................    if (base == 10 && sign == 1) 
....................       result = -result; 
....................  
....................    return(result); 
.................... } 
....................  
.................... signed int64 atoi64(char *s) 
.................... { 
....................    signed int64 result; 
....................    int8 sign, base, index; 
....................    char c; 
....................  
....................    index = 0; 
....................    sign = 0; 
....................    base = 10; 
....................    result = 0; 
....................  
....................    if (!s) 
....................       return 0; 
....................    c = s[index++]; 
....................  
....................    // increase index if either positive or negative sign is detected 
....................    if (c == '-') 
....................    { 
....................       sign = 1;         // Set the sign to negative 
....................       c = s[index++]; 
....................    } 
....................    else if (c == '+') 
....................    { 
....................       c = s[index++]; 
....................    } 
....................  
....................    if (c >= '0' && c <= '9') 
....................    { 
....................       if (c == '0' && (s[index] == 'x' || s[index] == 'X')) 
....................       { 
....................          base = 16; 
....................          index++; 
....................          c = s[index++]; 
....................       } 
....................  
....................       // The number is a decimal number 
....................       if (base == 10) 
....................       { 
....................          while (c >= '0' && c <= '9') { 
....................             result = (result << 1) + (result << 3);  // result *= 10; 
....................             result += (c - '0'); 
....................             c = s[index++]; 
....................          } 
....................       } 
....................       else if (base == 16)    // The number is a hexa number 
....................       { 
....................          c = toupper(c); 
....................          while ((c >= '0' && c <= '9') || (c >= 'A' && c <='F')) 
....................          { 
....................             if (c >= '0' && c <= '9') 
....................                result = (result << 4) + (c - '0'); 
....................             else 
....................                result = (result << 4) + (c - 'A' + 10); 
....................  
....................             c = s[index++];c = toupper(c); 
....................          } 
....................       } 
....................    } 
....................  
....................    if (base == 10 && sign == 1) 
....................       result = -result; 
....................  
....................    return(result); 
.................... } 
.................... #endif 
....................  
.................... char * itoa(signed int32 num, unsigned int base, char * s) 
.................... { 
....................      unsigned int32 temp=1; 
....................      unsigned int8 i,sign=0,cnt=0; 
....................      char c; 
....................  
....................      if(num<0) { 
....................          sign=1;        // Check for negative number 
....................          num*=-1; 
....................      } 
....................  
....................      while(temp>0) { 
....................          temp=(num/base); 
....................          s[cnt]=(num%base)+'0';    // Conversion 
....................  
....................          if(s[cnt]>0x39) 
....................             s[cnt]+=0x7; 
....................  
....................          cnt++; 
....................          num=temp; 
....................      } 
....................  
....................      if(sign==1) { 
....................          s[cnt]=0x2D;      // Negative sign 
....................          cnt++; 
....................      } 
....................  
....................      for(i = 0;i<(int8)(cnt/2);i++) { 
....................  
....................          c=s[i]; 
....................          s[i]=s[cnt-i-1];        // Reverse the number 
....................          s[cnt-i-1]=c; 
....................      } 
....................      s[cnt]='\0';     // End the string 
....................      return s; 
.................... } 
....................  
.................... #if defined(__PCD__) 
....................  
.................... char * itoa(signed int48 num, unsigned int base, char * s) 
.................... { 
....................      unsigned int48 temp=1; 
....................      unsigned int8 i,sign=0,cnt=0; 
....................      char c; 
....................  
....................      if(num<0) { 
....................          sign=1;        // Check for negative number 
....................          num*=-1; 
....................      } 
....................  
....................      while(temp>0) { 
....................          temp=(num/base); 
....................          s[cnt]=(num%base)+'0';    // Conversion 
....................  
....................          if(s[cnt]>0x39) 
....................             s[cnt]+=0x7; 
....................  
....................          cnt++; 
....................          num=temp; 
....................      } 
....................  
....................      if(sign==1) { 
....................          s[cnt]=0x2D;      // Negative sign 
....................          cnt++; 
....................      } 
....................  
....................      for(i = 0;i<(int8)(cnt/2);i++) { 
....................  
....................          c=s[i]; 
....................          s[i]=s[cnt-i-1];        // Reverse the number 
....................          s[cnt-i-1]=c; 
....................      } 
....................      s[cnt]='\0';     // End the string 
....................      return s; 
.................... } 
....................  
.................... char * itoa(signed int64 num, unsigned int base, char * s) 
.................... { 
....................      unsigned int64 temp=1; 
....................      unsigned int8 i,sign=0,cnt=0; 
....................      char c; 
....................       
....................      if(num<0) { 
....................          sign=1;        // Check for negative number 
....................          num*=-1;         
....................      } 
....................  
....................      while(temp>0) { 
....................          temp=(num/base); 
....................          s[cnt]=(num%base)+'0';    // Conversion 
....................  
....................          if(s[cnt]>0x39) 
....................             s[cnt]+=0x7; 
....................              
....................          cnt++; 
....................          num=temp; 
....................      } 
....................  
....................      if(sign==1) { 
....................          s[cnt]=0x2D;      // Negative sign 
....................          cnt++; 
....................      } 
....................  
....................      for(i = 0;i<(int8)(cnt/2);i++) { 
....................  
....................          c=s[i]; 
....................          s[i]=s[cnt-i-1];        // Reverse the number 
....................          s[cnt-i-1]=c; 
....................      } 
....................      s[cnt]='\0';     // End the string 
....................      return s; 
.................... } 
....................  
.................... #endif 
....................  
.................... float strtof(char *s, char *endptr) 
.................... { 
....................    float pow10 = 1.0; 
....................    float result = 0.0; 
....................    int1 skip = 1, sign = 0, point = 0; 
....................    char c; 
....................    unsigned int8 ptr = 0; 
....................  
....................    if (!s) 
....................       return 0; 
....................  
....................    for(c=s[ptr++]; c!=0; c=s[ptr++]) 
....................    { 
....................       if (skip && !isspace(c)) 
....................       { 
....................          skip = 0; 
....................          if (c == '+') 
....................          { 
....................             sign = 0; 
....................             continue; 
....................          }             
....................          else if (c == '-') 
....................          { 
....................             sign = 1; 
....................             continue; 
....................          } 
....................       } 
....................       if (!skip && (c == '.') && !point) 
....................          point = 1; 
....................       else if (!skip && isdigit(c)) 
....................       { 
....................          c -= '0'; 
....................          if (point) 
....................          { 
....................             pow10 = pow10 * 10.0; 
....................             result += (float)c / pow10;    
....................          } 
....................          else 
....................          { 
....................             result = 10.0 * result + (float)c; 
....................          } 
....................       } 
....................       else if (!skip) 
....................          break; 
....................    } 
....................  
....................    if (sign) 
....................       result = -1*result; 
....................        
....................    if(endptr) 
....................    { 
....................       if (ptr) { 
....................          ptr--; 
....................        #IF LONG_POINTERS  
....................          *((int16 *)endptr)= s+ptr;  
....................        #ELSE 
....................          *((char *)endptr)=s+ptr; 
....................        #ENDIF 
....................       } 
....................       else 
....................       { 
....................       #IF LONG_POINTERS 
....................       *((int16 *)endptr)= s;  
....................       #ELSE 
....................       *((char *)endptr)=s; 
....................       #ENDIF 
....................       } 
....................    } 
....................  
....................    return(result); 
.................... } 
....................  
.................... #if defined(__PCD__) 
.................... float48 strtof48(char *s, char *endptr) 
.................... { 
....................    float48 pow10 = 1.0; 
....................    float48 result = 0.0; 
....................    int1 skip = 1, sign = 0, point = 0; 
....................    char c; 
....................    unsigned int8 ptr = 0; 
....................  
....................    if (!s) 
....................       return 0; 
....................  
....................    for(c=s[ptr++]; c!=0; c=s[ptr++]) 
....................    { 
....................       if (skip && !isspace(c)) 
....................       { 
....................          skip = 0; 
....................          if (c == '+') 
....................          { 
....................             sign = 0; 
....................             continue; 
....................          }             
....................          else if (c == '-') 
....................          { 
....................             sign = 1; 
....................             continue; 
....................          } 
....................       } 
....................       if (!skip && (c == '.') && !point) 
....................          point = 1; 
....................       else if (!skip && isdigit(c)) 
....................       { 
....................          c -= '0'; 
....................          if (point) 
....................          { 
....................             pow10 = pow10 * 10.0; 
....................             result += (float48)c / pow10;    
....................          } 
....................          else 
....................          { 
....................             result = 10.0 * result + (float48)c; 
....................          } 
....................       } 
....................       else if (!skip) 
....................          break; 
....................    } 
....................  
....................    if (sign) 
....................       result = -1*result; 
....................        
....................    if(endptr) 
....................    { 
....................       if (ptr) { 
....................          ptr--; 
....................        #IF LONG_POINTERS  
....................          *((int16 *)endptr)= s+ptr;  
....................        #ELSE 
....................          *((char *)endptr)=s+ptr; 
....................        #ENDIF 
....................       } 
....................       else 
....................       { 
....................       #IF LONG_POINTERS 
....................       *((int16 *)endptr)= s;  
....................       #ELSE 
....................       *((char *)endptr)=s; 
....................       #ENDIF 
....................       } 
....................    } 
....................  
....................    return(result); 
.................... } 
....................  
.................... float64 strtod(char *s, char *endptr) 
.................... { 
....................    float64 pow10 = 1.0; 
....................    float64 result = 0.0; 
....................    int1 skip = 1, sign = 0, point = 0; 
....................    char c; 
....................    unsigned int8 ptr = 0; 
....................  
....................    if (!s) 
....................       return 0; 
....................  
....................    for(c=s[ptr++]; c!=0; c=s[ptr++]) 
....................    { 
....................       if (skip && !isspace(c)) 
....................       { 
....................          skip = 0; 
....................          if (c == '+') 
....................          { 
....................             sign = 0; 
....................             continue; 
....................          }             
....................          else if (c == '-') 
....................          { 
....................             sign = 1; 
....................             continue; 
....................          } 
....................       } 
....................       if (!skip && (c == '.') && !point) 
....................          point = 1; 
....................       else if (!skip && isdigit(c)) 
....................       { 
....................          c -= '0'; 
....................          if (point) 
....................          { 
....................             pow10 = pow10 * 10.0; 
....................             result += (float64)c / pow10;    
....................          } 
....................          else 
....................          { 
....................             result = 10.0 * result + (float64)c; 
....................          } 
....................       } 
....................       else if (!skip) 
....................          break; 
....................    } 
....................  
....................    if (sign) 
....................       result = -1*result; 
....................        
....................    if(endptr) 
....................    { 
....................       if (ptr) { 
....................          ptr--; 
....................        #IF LONG_POINTERS  
....................          *((int16 *)endptr)= s+ptr;  
....................        #ELSE 
....................          *((char *)endptr)=s+ptr; 
....................        #ENDIF 
....................       } 
....................       else 
....................       { 
....................       #IF LONG_POINTERS 
....................       *((int16 *)endptr)= s;  
....................       #ELSE 
....................       *((char *)endptr)=s; 
....................       #ENDIF 
....................       } 
....................    } 
....................  
....................    return(result); 
.................... } 
.................... #endif 
....................  
.................... unsigned long strtoul(char *s, char *endptr, signed int base) 
.................... { 
....................    char *sc,*s1,*sd; 
....................    unsigned long x=0; 
....................    char sign; 
....................    char digits[]="0123456789abcdefghijklmnopqstuvwxyz"; 
....................    for(sc=s;isspace(*sc);++sc); 
....................    sign=*sc=='-'||*sc=='+'?*sc++:'+'; 
....................    if(sign=='-' || base <0 || base ==1|| base >36) // invalid base 
....................    goto StrtoulGO; 
....................  
....................    else if (base) 
....................    { 
....................       if(base==16 && *sc =='0'&&(sc[1]=='x' || sc[1]=='X')) 
....................          sc+=2; 
....................       if(base==8 && *sc =='0') 
....................          sc+=1; 
....................       if(base==2 && *sc =='0'&&sc[1]=='b') 
....................          sc+=2; 
....................  
....................    } 
....................    else if(*sc!='0') // base is 0, find base 
....................       base=10; 
....................    else if (sc[1]=='x' || sc[1]=='X') 
....................       base =16,sc+=2; 
....................    else if(sc[1]=='b') 
....................       base=2,sc+=2; 
....................    else 
....................       base=8; 
....................    for (s1=sc;*sc=='0';++sc);// skip leading zeroes 
....................    sd=memchr(digits,tolower(*sc),base); 
....................    for(; sd!=0; ) 
....................    { 
....................       x=x*base+(int16)(sd-digits); 
....................       ++sc; 
....................       sd=memchr(digits,tolower(*sc),base); 
....................    } 
....................    if(s1==sc) 
....................    { 
....................    StrtoulGO: 
....................       if (endptr) 
....................       { 
....................          #IF LONG_POINTERS 
....................          *((int16 *)endptr)= s;  
....................          #ELSE 
....................          *((char *)endptr)=s; 
....................          #ENDIF 
....................          } 
....................    return 0; 
....................    } 
....................    if (endptr) 
....................    { 
....................          #IF LONG_POINTERS 
....................          *((int16 *)endptr)= sc;  
....................          #ELSE 
....................          *((char *)endptr)=sc;  
....................          #ENDIF 
....................    } 
....................    return x; 
.................... } 
....................  
....................  
.................... signed long strtol(char *s,char *endptr, signed int base) 
.................... { 
....................    char *sc,*s1,*sd; 
....................    signed long x=0; 
....................    char sign; 
....................    char digits[]="0123456789abcdefghijklmnopqstuvwxyz"; 
....................    for(sc=s;isspace(*sc);++sc); 
....................    sign=*sc=='-'||*sc=='+'?*sc++:'+'; 
....................    if (base <0 || base ==1|| base >36) // invalid base 
....................    goto StrtolGO; 
....................    else if (base) 
....................    { 
....................       if(base==16 && *sc =='0'&&(sc[1]=='x' || sc[1]=='X')) 
....................          sc+=2; 
....................       if(base==8 && *sc =='0') 
....................          sc+=1; 
....................       if(base==2 && *sc =='0'&&sc[1]=='b') 
....................          sc+=2; 
....................  
....................    } 
....................    else if(*sc!='0') // base is 0, find base 
....................       base=10; 
....................    else if (sc[1]=='x' || sc[1]=='X') 
....................       base =16,sc+=2; 
....................    else if(sc[1]=='b') 
....................       base=2,sc+=2; 
....................    else 
....................       base=8; 
....................    for (s1=sc;*sc=='0';++sc);// skip leading zeroes 
....................  
....................    sd=memchr(digits,tolower(*sc),base); 
....................    for(;sd!=0;) 
....................    { 
....................       x=x*base+(int16)(sd-digits); 
....................       ++sc; 
....................       sd=memchr(digits,tolower(*sc),base); 
....................    } 
....................    if(s1==sc) 
....................    { 
....................    StrtolGO: 
....................       if (endptr) 
....................       { 
....................          #IF LONG_POINTERS 
....................          *((int16 *)endptr)= s;  
....................          #ELSE 
....................          *((char *)endptr)=s; 
....................          #ENDIF 
....................       } 
....................    return 0; 
....................    } 
....................    if(sign=='-') 
....................       x  =-x; 
....................    if (endptr) 
....................    { 
....................         #IF LONG_POINTERS 
....................          *((int16 *)endptr)= sc;  
....................         #ELSE 
....................         *((char *)endptr)=sc; 
....................         #ENDIF 
....................    } 
....................    return x; 
.................... } 
....................  
.................... signed int8 system(char *string) 
.................... { 
....................    return 0; 
.................... } 
....................  
.................... size_t mblen(char *s,size_t n) 
.................... { 
....................    return strlen(s); 
.................... } 
....................  
.................... int8 mbtowc(wchar_t *pwc,char *s,size_t n) 
.................... { 
....................    *pwc=*s; 
....................    return 1; 
.................... } 
....................  
.................... int8 wctomb(char *s,wchar_t wchar) 
.................... { 
....................    *s=wchar; 
....................    return 1; 
.................... } 
....................  
.................... size_t mbstowcs(wchar_t *pwcs,char *s,size_t n) 
.................... { 
....................    strncpy(pwcs,s,n); 
....................    return strlen(pwcs); 
.................... } 
....................  
.................... size_t wcstombs(char *s,wchar_t *pwcs,size_t n) 
.................... { 
....................    strncpy(s,pwcs,n); 
....................    return strlen(s); 
.................... } 
....................  
.................... //--------------------------------------------------------------------------- 
.................... // The random number implementation 
.................... //--------------------------------------------------------------------------- 
....................  
.................... unsigned int32 _Randseed; 
....................  
.................... unsigned int16 rand(void) 
.................... { 
....................    _Randseed = _Randseed * 1103515245 + 12345; 
....................    return ((unsigned int16)(_Randseed >> 16) % RAND_MAX); 
.................... } 
....................  
.................... void srand(unsigned int32 seed) 
.................... { 
....................    _Randseed = seed; 
.................... } 
....................  
.................... //--------------------------------------------------------------------------- 
.................... // Searching and sorting utilities implementation 
.................... //--------------------------------------------------------------------------- 
....................  
.................... #if !defined(__PCD__) 
.................... typedef signed int8 (*_Cmpfun)(char * p1,char * p2);  
.................... #else  
.................... typedef signed int16 (*_Cmpfun)(char * p1,char * p2);  
.................... #endif 
....................  
....................  
....................  
.................... void qsort(char * qdata, unsigned int qitems, unsigned int qsize, _Cmpfun cmp) { 
....................    unsigned int m,j,i,l; 
....................    int1 done; 
....................    unsigned int8 t[16]; 
....................  
....................    m = qitems/2; 
....................    while( m > 0 ) { 
....................      for(j=0; j<(qitems-m); ++j) { 
....................         i = j; 
....................         do 
....................         { 
....................            done=1; 
....................            l = i+m; 
....................            if( (*cmp)(qdata+i*qsize, qdata+l*qsize) > 0 ) { 
....................               memcpy(t, qdata+i*qsize, qsize); 
....................               memcpy(qdata+i*qsize, qdata+l*qsize, qsize); 
....................               memcpy(qdata+l*qsize, t, qsize); 
....................               if(m <= i) 
....................                 i -= m; 
....................                 done = 0; 
....................            } 
....................         } while(!done); 
....................      } 
....................      m = m/2; 
....................    } 
.................... } 
....................  
....................  
.................... char *bsearch(char *key, char *base, size_t num, size_t width,_Cmpfun cmp) 
.................... { 
....................    char *p, *q; 
....................    size_t n; 
....................    size_t pivot; 
....................    signed int val; 
....................  
....................    p = base; 
....................    n = num; 
....................  
....................    while (n > 0) 
....................    { 
....................       pivot = n >> 1; 
....................       q = p + width * pivot; 
....................  
....................       val = (*cmp)(key, q); 
....................  
....................       if (val < 0) 
....................          n = pivot; 
....................       else if (val == 0) 
....................          return ((char *)q); 
....................       else { 
....................          p = q + width; 
....................          n -= pivot + 1; 
....................       } 
....................    } 
....................  
....................    return NULL;      // There's no match 
.................... } 
....................  
....................  
.................... #endif 
....................  
.................... #include <time.h> 
.................... ///////////////////////////////////////////////////////////////////////////// 
.................... ///                                                                       /// 
.................... ///                               time.h                                  /// 
.................... ///                                                                       /// 
.................... /// Time algorithms.  This follows the standard C API, with the following /// 
.................... /// exceptions:                                                           /// 
.................... ///   * ctime() and asctime() have another optional input parameter which /// 
.................... ///     is the pointer to where to save the result string.                /// 
.................... ///     Normally ctime() and asctime() write the output to a globally     /// 
.................... ///     allocated string and return a pointer to this string.  By using   /// 
.................... ///     this optional extra function parameter, you can store the         /// 
.................... ///     result string into a specified location.                          /// 
.................... ///   * The output string of ctime() and asctime() are not statically     /// 
.................... ///     allocated.  That means any other code that runs after ctime()     /// 
.................... ///     or asctime() can corrupt the result value.  Either perform        /// 
.................... ///     a string copy of the result into a new location, or use the       /// 
.................... ///     optional parameter of these functions to store the result         /// 
....................  
.................... ///   * strftime() is not supported.                                      /// 
.................... ///   * SetTime() is added that initializes/set the current time.         /// 
.................... ///   * GetTime() is added so you can read directly into a struct_tm,     /// 
.................... ///      instead of having to use localtime(time()) which is usually      /// 
.................... ///       innefecient.                                                    /// 
.................... ///   * TimeInit() added for any real time clock devices that may need    /// 
.................... ///      to be initialized first.                                         /// 
.................... ///   * Not all timebases have a tick system, so it's not recommended     /// 
.................... ///      to use clock().  If you need clock(), look at CCS's              /// 
.................... ///      #use timer() library.                                            /// 
.................... ///   * Added timeasc(), which converts a string to a time_t.  It is      /// 
.................... ///      basically the reverse of asctime().  Returns TRUE if successful  /// 
.................... ///      conversion, FALSE if not because format is wrong.                /// 
.................... ///   * Added TIME_T_USES_2010.  Normally time_t is number of seconds     /// 
.................... ///      since January 1 1970.  However, if time_t is a 32bit number this /// 
.................... ///      value will rollover sometime in 2032.  If TIME_T_USES_2010 is    /// 
.................... ///      defined then time_t is number of seconds since January 1 2010,   /// 
.................... ///      and a 32bit time_t won't rollover until 2072.   Most modern      /// 
.................... ///      operating systems (like Windows and Linux) uses a 64bit time_t   /// 
.................... ///      so they aren't effected.  If you are interfacing with another    /// 
.................... ///      system that uses a normal time_t, then that system will need to  /// 
.................... ///      add 1262304000 to the value coming from this library.            /// 
.................... ///      To enable this feature, then #define TIME_T_USES_2010            /// 
.................... ///                                                                       /// 
.................... /// This file only provides the prototypes and definitions needed to      /// 
.................... /// proved a time alogrithm that follows the C standard library.  You     /// 
.................... /// also need to include/link the actual library that performs the time   /// 
.................... /// base.  As of this writing CCS provides the following compatible       /// 
.................... /// timebase libraries:                                                   /// 
.................... ///      rtcperipheral.c - for PICs with internal real time clock.        /// 
.................... ///      ds1305.c - external DS1305 real time clock.                      /// 
.................... ///      rtcticks.c - Use a PIC's timer with CCS #use timer() library.    /// 
.................... ///                                                                       /// 
.................... /// API:                                                                  /// 
.................... ///                                                                       /// 
.................... /// Variable definitions:                                                 /// 
.................... ///   c - clock timer (clock_t), number of ticks since powerup.  See      /// 
.................... ///       CLOCKS_PER_SECOND to determine clock rate.                      /// 
.................... ///                                                                       /// 
.................... ///   t - second timer (time_t), number of seconds since Jan 1st, 1970.   /// 
.................... ///                                                                       /// 
.................... ///   ts - time struct (struct_tm), a structure that holds time in        /// 
.................... ///        descriptive format (seconds, minutes, hours, day, month, etc). /// 
.................... ///                                                                       /// 
.................... /// CLOCKS_PER_SECOND - This is a constant which needs to be defined that /// 
.................... ///   configures the timebase used by the clock timer and clock().        /// 
.................... ///   If you are not using clock() then you don't need to define this.    /// 
.................... ///   If you are using a method such a PIC's timer for the timebase then  /// 
.................... ///   you will need to set this.                                          /// 
.................... ///                                                                       /// 
.................... /// c = clock() - Return current clock timer.                             /// 
.................... ///                                                                       /// 
.................... /// t = time(*t) - Return current second timer.  Returns twice (as a      /// 
.................... ///         a return, and saves to input pointer).                        /// 
.................... ///                                                                       /// 
.................... /// SetTime(*tm) - Initializes the current time with a struct_tm          /// 
.................... ///                                                                       /// 
.................... /// SetTimeSec(t) - Initializes the current time with a seconds time      /// 
.................... ///                                                                       /// 
.................... /// t = mktime(*tm) - Converts a time struct to a second timer.           /// 
.................... ///                                                                       /// 
.................... /// t = difftime(t,t) - Returns difference between two second timers.     /// 
.................... ///                                                                       /// 
.................... /// *char = ctime(*t, *char) - Converts second timer to a readable string /// 
.................... ///                            Www Mmm dd hh:mm:ss yyyy                   /// 
.................... ///                                                                       /// 
.................... /// *char = asctime(*ts, *char) - Converts time struct to a readable      /// 
.................... ///                            string.                                    /// 
.................... ///                            Www Mmm dd hh:mm:ss yyyy                   /// 
.................... ///                                                                       /// 
.................... /// *ts = localtime(*t) - Converts second timer to a time struct.         /// 
.................... ///                  *ts points to a global time struct and will be       /// 
.................... ///                  corrupted in future calls to localtime().            /// 
.................... ///                                                                       /// 
.................... /// GetTime(*tm) - Returns the current time as a time struct              /// 
.................... ///                                                                       /// 
.................... /// TimeInit() - Initializes the timing device                            /// 
.................... ///                                                                       /// 
.................... /////////////////////////////////////////////////////////////////////////// 
.................... ///                                                                     /// 
.................... /// VERSION HISTORY                                                     /// 
.................... ///                                                                     /// 
.................... /// June 9 2015:                                                        /// 
.................... ///   Fixed the struct_tm typedef so 'struct tm' would be legal         /// 
.................... ///      syntax.                                                        /// 
.................... ///   The parameters that CCS added to asctime() and ctime() are now    /// 
.................... ///      optional.                                                      /// 
.................... ///   Fixed a bug where tm_mday was sometimes off by 1 day.             /// 
.................... ///                                                                     /// 
.................... /// September 25 2014:                                                  /// 
.................... ///   Cleaned up documentation.                                         /// 
.................... ///   Added timeasc().                                                  /// 
.................... ///   Added TIME_T_USES_2010 compile time option.                       /// 
.................... ///                                                                     /// 
.................... /////////////////////////////////////////////////////////////////////////// 
.................... ////        (C) Copyright 1996,2011 Custom Computer Services           //// 
.................... //// This source code may only be used by licensed users of the CCS    //// 
.................... //// C compiler.  This source code may only be distributed to other    //// 
.................... //// licensed users of the CCS C compiler.  No other use,              //// 
.................... //// reproduction or distribution is permitted without written         //// 
.................... //// permission.  Derivative programs created using this software      //// 
.................... //// in object code form are not restricted in any way.                //// 
.................... /////////////////////////////////////////////////////////////////////////// 
....................  
.................... #ifndef __TIME_H__ 
.................... #define __TIME_H__ 
....................  
.................... #include <stdlibm.h> 
.................... /////////////////////////////////////////////////////////////////////////// 
.................... ////        (C) Copyright 1996,2011 Custom Computer Services           //// 
.................... //// This source code may only be used by licensed users of the CCS C  //// 
.................... //// compiler.  This source code may only be distributed to other      //// 
.................... //// licensed users of the CCS C compiler.  No other use, reproduction //// 
.................... //// or distribution is permitted without written permission.          //// 
.................... //// Derivative programs created using this software in object code    //// 
.................... //// form are not restricted in any way.                               //// 
.................... /////////////////////////////////////////////////////////////////////////// 
....................  
....................  
.................... /*********************************************************************/ 
.................... #ifndef _STDLIBM 
.................... #define _STDLIBM 
....................  
.................... /* Memory Management Functions*/ 
.................... #include <stddef.h> 
.................... /////////////////////////////////////////////////////////////////////////// 
.................... ////        (C) Copyright 1996,2003 Custom Computer Services           //// 
.................... //// This source code may only be used by licensed users of the CCS C  //// 
.................... //// compiler.  This source code may only be distributed to other      //// 
.................... //// licensed users of the CCS C compiler.  No other use, reproduction //// 
.................... //// or distribution is permitted without written permission.          //// 
.................... //// Derivative programs created using this software in object code    //// 
.................... //// form are not restricted in any way.                               //// 
.................... /////////////////////////////////////////////////////////////////////////// 
....................  
.................... #ifndef _STDDEF 
....................  
.................... #define _STDDEF 
....................  
.................... #if sizeof(unsigned int8 *)==1 
.................... #define ptrdiff_t unsigned int8 
.................... #else 
.................... #define ptrdiff_t unsigned int16 
.................... #endif 
....................  
.................... #if defined(__PCB__) || defined(__PCM__) 
.................... #define size_t unsigned int8 
.................... #else 
.................... #define size_t unsigned int16 
.................... #endif 
.................... #define wchar_t char 
.................... #define NULL 0 
....................  
.................... #define offsetof(s,f) (offsetofbit(s,f)/8) 
....................  
.................... #endif 
....................  
.................... #if defined(__PCB__) 
.................... typedef struct nodet { 
....................    unsigned int8 size; 
....................    unsigned int8 next; }node_t; 
.................... #elif defined(__PCM__) 
.................... typedef struct nodet { 
....................    unsigned int8 size; 
....................    unsigned int16 next; }node_t; 
.................... #elif defined(__PCH__) 
.................... typedef struct nodet { 
....................    unsigned int16 size; 
....................    unsigned int16 next; }node_t; 
.................... #elif defined(__PCD__) 
.................... typedef struct nodet { 
....................    unsigned int16 size; 
....................    unsigned int16 next; }node_t; 
.................... #endif 
....................  
.................... #if !defined(STDLIBM_MANUAL_DYNAMIC_MEMORY) 
....................    #USE DYNAMIC_MEMORY 
.................... #endif 
....................  
.................... #ifndef debug_stdlibm 
....................    #define debug_stdlibm(s) 
.................... #else 
....................    #define __DO_DEBUG_STDLIBM 
....................     
....................    char g_DebugStdlibmStr[50]; 
....................     
....................    #if defined(__PCD__) 
....................       #if (defined(__PIC24E__)||defined(__dsPIC33E__)) 
....................          #define INVALID_MEMORY_LOCATION(x) ((x >= (getenv("RAM")+0x800)) || bit_test(x, 0)) 
....................       #else 
....................          #define INVALID_MEMORY_LOCATION(x) ((x >= (getenv("RAM")+0x1000)) || bit_test(x, 0)) 
....................       #endif 
....................    #else 
....................       #define INVALID_MEMORY_LOCATION(x) (x >= getenv("RAM")) 
....................    #endif 
.................... #endif 
....................  
.................... #include <memmgmt.c> 
.................... /////////////////////////////////////////////////////////////////////////// 
.................... ////        (C) Copyright 1996,2003 Custom Computer Services           //// 
.................... //// This source code may only be used by licensed users of the CCS C  //// 
.................... //// compiler.  This source code may only be distributed to other      //// 
.................... //// licensed users of the CCS C compiler.  No other use, reproduction //// 
.................... //// or distribution is permitted without written permission.          //// 
.................... //// Derivative programs created using this software in object code    //// 
.................... //// form are not restricted in any way.                               //// 
.................... /////////////////////////////////////////////////////////////////////////// 
....................  
.................... #if defined(__PCH__) 
....................  #define _MEMMGMT_CSIZE 32768 
....................  #define _MEMMGMT_POS 15 
.................... #elif defined(__PCD__) 
....................    #define _MEMMGMT_CSIZE 32768 
....................    #define _MEMMGMT_POS 15 
.................... #else 
....................    #define _MEMMGMT_CSIZE 127 
....................    #define _MEMMGMT_POS 7 
.................... #endif 
....................  
.................... node_t * create_node(unsigned int16 size, node_t *ptr) // create node at given location 
.................... { 
....................    node_t *result; 
....................    result =ptr; 
....................    result->size=size; 
....................    result->next = NULL; 
....................    return result; 
.................... } 
.................... void update_node(node_t *node, unsigned int16 size) // update the size of given node 
.................... { 
....................    node->size=size; 
.................... } 
....................  
.................... /* Insert node immediately after place */ //old,new 
.................... void insert_node_after(node_t *place, node_t *node)// place the node after another given node 
.................... { 
....................     if (place->next==NULL) 
....................        node->next= NULL; 
....................     else 
....................        node->next=place->next; 
....................     place->next=node; 
.................... } 
....................  
.................... ///////////////////////////////////////////////////////////////////////////////////////////////////////////// 
....................  
.................... void remove_node(node_t *node) {// remove the given node from the memlist 
....................    node_t *ptr; 
....................    for(ptr=__DYNAMIC_HEAD;ptr->next!=node;ptr=ptr->next); 
....................    ptr->next=node->next; 
....................    node=NULL; 
.................... } 
....................  
.................... ///////////////////////////////////////////////////////////////////////////////////////////////////////////// 
....................  
.................... #if defined(__DO_DEBUG_STDLIBM) 
.................... void print_list() { // print the current memlist 
....................     node_t *node; 
....................     debug_stdlibm("\r\nThe list is \n\r"); 
....................     for(node = __DYNAMIC_HEAD; node != NULL; node = node->next) 
....................     { 
....................         sprintf(g_DebugStdlibmStr, "H:0x%lx S:0x%lx N:0x%lx\n\r", node, node->size, node->next); 
....................         debug_stdlibm(g_DebugStdlibmStr); 
....................         if (INVALID_MEMORY_LOCATION(node->next)) 
....................         { 
....................            debug_stdlibm("Breaking because of invalid next node\r\n"); 
....................            break; 
....................         }    
....................     } 
....................     sprintf(g_DebugStdlibmStr, "size of node_t %u\r\n",sizeof(node_t)); 
....................     debug_stdlibm(g_DebugStdlibmStr); 
.................... } 
.................... #endif 
....................  
....................  
....................  
....................  
.................... void traverse() 
.................... { 
....................    node_t *node,*temp; 
....................    unsigned int16 nsize,nextsize; 
....................    node=__DYNAMIC_HEAD; 
....................    while(node!=NULL) 
....................    { 
....................      #if defined(__DO_DEBUG_STDLIBM) 
....................       if (INVALID_MEMORY_LOCATION(node)) 
....................       { 
....................          sprintf(g_DebugStdlibmStr, "traverse() invalid node (0x%LX)\r\n", node); 
....................          debug_stdlibm(g_DebugStdlibmStr); 
....................          break; 
....................       }    
....................      #endif 
....................      if(!bit_test(node->size,_MEMMGMT_POS))// node free 
....................       { 
....................          nsize=node->size; 
....................          temp=(unsigned int16)node->next; 
....................         #if defined(__DO_DEBUG_STDLIBM) 
....................          if (INVALID_MEMORY_LOCATION(temp)) 
....................          { 
....................             sprintf(g_DebugStdlibmStr, "traverse() invalid temp (0x%LX)\r\n", node); 
....................             debug_stdlibm(g_DebugStdlibmStr); 
....................             break; 
....................          } 
....................         #endif 
....................          if(!bit_test(temp->size,_MEMMGMT_POS)&& (temp==((unsigned int16)node+nsize+sizeof(node_t))))//next node free and consecutive, so combine 
....................          { 
....................             nextsize=temp->size; 
....................             nsize+=nextsize+sizeof(node_t); 
....................             remove_node(temp); 
....................             update_node(node,nsize); 
....................          } 
....................          else 
....................          node=node->next; 
....................       } 
....................       else 
....................       node=node->next; 
....................    } 
.................... } 
....................  
.................... char *malloc(size_t size) 
.................... { 
....................    node_t *node,*new; 
....................    unsigned int16 nsize; 
....................    #if defined(__PCD__) 
....................    if (size % 2) 
....................       size++; 
....................    #endif 
....................    node=__DYNAMIC_HEAD; 
....................     
....................   #if defined(__DO_DEBUG_STDLIBM) 
....................    sprintf(g_DebugStdlibmStr, "malloc() size=%lu ", size); 
....................    debug_stdlibm(g_DebugStdlibmStr); 
....................   #endif 
....................          
....................    while(node!=NULL) // chk until end of memlist 
....................    { 
....................      #if defined(__DO_DEBUG_STDLIBM) 
....................       if (INVALID_MEMORY_LOCATION(node)) 
....................       { 
....................          sprintf(g_DebugStdlibmStr, " invalid node (0x%LX)\r\n", node); 
....................          debug_stdlibm(g_DebugStdlibmStr); 
....................          print_list(); 
....................          return(0); 
....................       } 
....................      #endif 
....................       if(!bit_test(node->size,_MEMMGMT_POS) && node->size >=size) // node is free and > = req size 
....................       { 
....................          nsize=node->size;    //nsize = size of the node that "node" being pointed at 
....................          if(nsize>size +sizeof(node_t)) //node > req size, so split and add new node to memlist 
....................          { 
....................             new=create_node(nsize-size-sizeof(node_t),(unsigned int16)node+sizeof(node_t)+size); 
....................             insert_node_after(node,new); 
....................             update_node(node,size+_MEMMGMT_CSIZE); 
....................          } 
....................          else//not enough space for new node so use original size 
....................          update_node(node,nsize+_MEMMGMT_CSIZE); 
....................          //end if 
....................          break; 
....................       }//end if 
....................       node=node->next; 
....................    }//end while 
....................    if(node==NULL)// reached end without finding an appropriate node 
....................    { 
....................       debug_stdlibm("Not enough memory for mallocation\r\n"); 
....................       return NULL; 
....................    } 
....................    else 
....................    { 
....................      #if defined(__DO_DEBUG_STDLIBM) 
....................       sprintf(g_DebugStdlibmStr, "%LX\r\n", (char *)node+sizeof(node_t)); 
....................       debug_stdlibm(g_DebugStdlibmStr); 
....................      #endif 
....................       return (char *)node+sizeof(node_t); // return pounsigned int8er to allocated space 
....................    } 
.................... } 
....................  
.................... char *calloc(size_t nmemb,size_t size) 
.................... { 
....................    node_t *node,*new; 
....................    unsigned int16 nsize,resize; 
....................    node=__DYNAMIC_HEAD; 
....................    resize=nmemb*size; 
....................    #if defined(__PCD__) 
....................    if(resize%2) 
....................       resize++; 
....................    #endif 
....................    while(node!=NULL) // chk until end of memlist 
....................    { 
....................      #if defined(__DO_DEBUG_STDLIBM) 
....................       if (INVALID_MEMORY_LOCATION(node)) 
....................       { 
....................          sprintf(g_DebugStdlibmStr, "malloc() invalid node (0x%LX)\r\n", node); 
....................          debug_stdlibm(g_DebugStdlibmStr); 
....................          print_list(); 
....................          return(0); 
....................       } 
....................      #endif 
....................       if(!bit_test(node->size,_MEMMGMT_POS) && node->size >=resize)// node is free and > = req size 
....................       { 
....................          nsize=node->size; 
....................          if(nsize>resize+sizeof(node_t))//node > req size, so split and add new node to memlist 
....................          { 
....................             new=create_node(nsize-resize-sizeof(node_t),(unsigned int16)node+sizeof(node_t)+resize); 
....................             insert_node_after(node,new); 
....................             update_node(node,resize+_MEMMGMT_CSIZE); 
....................          } 
....................          else//not enough space for new node so use original size 
....................          update_node(node,nsize+_MEMMGMT_CSIZE); 
....................          //end if 
....................          break; 
....................       }//end if 
....................       node=node->next; 
....................    }//end while 
....................    if(node==NULL)// reached end without finding an appropriate node 
....................    { 
....................       debug_stdlibm("Not enough memory for callocation\r\n"); 
....................       return NULL; 
....................    } 
....................    else 
....................    { 
....................       memset((unsigned int16)node+sizeof(node_t),0,resize);// initialize to 0 
....................       return (char *)(unsigned int16)node+sizeof(node_t);// return pounsigned int8er to allocated space 
....................    } 
.................... } 
.................... void free( void * ptr) 
.................... { 
....................    node_t *node; 
....................    unsigned int16 nsize; 
....................  
....................   #if defined(__DO_DEBUG_STDLIBM) 
....................    sprintf(g_DebugStdlibmStr, "free() 0x%LX\r\n", ptr); 
....................    debug_stdlibm(g_DebugStdlibmStr); 
....................   #endif 
....................  
....................    if(ptr==NULL) // not a valid pounsigned int8er 
....................       return; 
....................    else 
....................    { 
....................       node=ptr-sizeof(node_t); 
....................       if(bit_test(node->size,_MEMMGMT_POS))// node occupied 
....................       { 
....................          nsize=node->size-_MEMMGMT_CSIZE; 
....................          update_node(node,nsize); 
....................          ptr=NULL; 
....................  
....................       } 
....................       else // wrong input, return 
....................       { 
....................          ptr=NULL; 
....................          return; 
....................       } 
....................    } 
....................    traverse(); 
.................... } 
....................  
.................... char *realloc(void *ptr,size_t size) 
.................... { 
....................    node_t *node,*new,*temp; 
....................    unsigned int16 nsize,nextsize; 
....................    char *newptr; 
....................    #if defined(__PCD__) 
....................    if(size %2) 
....................       size++; 
....................    #endif 
....................    if(ptr==NULL)// null pounsigned int8er, so malloc the req memory 
....................       return(malloc(size)); 
....................    else if(size==0) 
....................    { 
....................       free(ptr); 
....................       return(NULL); 
....................    } 
....................    else 
....................    { 
....................       node=ptr-sizeof(node_t); 
....................       if(bit_test(node->size,_MEMMGMT_POS))// chk if valid pounsigned int8er 
....................       { 
....................          nsize=node->size-_MEMMGMT_CSIZE; 
....................          temp=(unsigned int16)node->next; 
....................          if(nsize>size)// block > req size 
....................          { 
....................         
....................                if(!bit_test(temp->size,_MEMMGMT_POS) && (temp==((unsigned int16)node+nsize+sizeof(node_t))))// next block free and consecutive 
....................                { 
....................                   update_node(node,size+_MEMMGMT_CSIZE); // update block 
....................                   nextsize=temp->size; 
....................                   remove_node(temp); 
....................                   new=create_node(nextsize+(nsize-size),(unsigned int16)node+size+sizeof(node_t)); 
....................                   insert_node_after(node,new); 
....................                    
....................  
....................                } 
....................                else if (nsize>size +sizeof(node_t))//node > req size, so split and add new node to memlist 
....................                { 
....................                   update_node(node,size+_MEMMGMT_CSIZE); // update block 
....................                   new=create_node(nsize-size-sizeof(node_t),(unsigned int16)node+sizeof(node_t)+size); 
....................                   insert_node_after(node,new); 
....................                } 
....................                else//not enough space for new node so use original size 
....................                update_node(node,nsize+_MEMMGMT_CSIZE); // update block 
....................  
....................          } 
....................          else // block < req size 
....................          { 
....................             if(!bit_test(temp->size,_MEMMGMT_POS) && (temp==((unsigned int16)node+nsize+sizeof(node_t))))// next block free and consecutive 
....................             { 
....................                nextsize=temp->size; 
....................                if(nextsize>=size-nsize) // next block >=difference 
....................                { 
....................                   if(nextsize>size-nsize+sizeof(node_t))//next node > req size, so split and add new node to memlist 
....................                   { 
....................                       update_node(node,size+_MEMMGMT_CSIZE);// update block 
....................                       remove_node(temp); 
....................                       new=create_node(nextsize-(size-nsize),(unsigned int16)node+size+sizeof(node_t)); 
....................                       insert_node_after(node,new); 
....................                   } 
....................                   else//not enough space for new node in next node, so use original size 
....................                   { 
....................                       update_node(node,nsize+nextsize+_MEMMGMT_CSIZE);// update block 
....................                       remove_node(temp); 
....................                   } 
....................                } 
....................                else  //next block free but too small for new size 
....................                { 
....................                   newptr = malloc(size);  //use malloc to find new block 
....................                   if(newptr == NULL) 
....................                      return(NULL);        //return NULL if malloc was unable to find new block 
....................                     
....................                   memcpy(newptr, ptr, nsize);   //copy original data to new block 
....................                   free(ptr);                    //free original block 
....................                   return(newptr);               //return new pointer 
....................                } 
....................             } 
....................             else  //next block not free 
....................             { 
....................                newptr = malloc(size);  //use malloc to find new block 
....................                if(newptr == NULL)       
....................                   return(NULL);        //return NULL if malloc was unable to find new block 
....................                 
....................                memcpy(newptr, ptr, nsize);   //copy original data to new block 
....................                free(ptr);                    //free original block 
....................                return(newptr);               //return new pointer 
....................             } 
....................          } 
....................          return (char *)node+sizeof(node_t); // return pounsigned int8er to the reallocated block 
....................       } 
....................       else // not allocated use malloc 
....................       { 
....................          return(malloc(size)); 
....................       } 
....................    } 
....................  } 
.................... #ENDIF 
....................  
....................  
.................... /* API Types*/ 
.................... typedef signed int32 time_t; 
.................... typedef unsigned int32 clock_t; 
....................  
.................... typedef enum 
.................... { 
....................    SUNDAY = 0, 
....................    MONDAY, 
....................    TUESDAY, 
....................    WEDNESDAY, 
....................    THURSDAY, 
....................    FRIDAY, 
....................    SATURDAY    
.................... }  Weekday; 
....................  
.................... typedef enum 
.................... { 
....................    JANUARY = 0, 
....................    FEBRUARY, 
....................    MARCH, 
....................    APRIL, 
....................    MAY, 
....................    JUNE, 
....................    JULY, 
....................    AUGUST, 
....................    SEPTEMBER, 
....................    OCTOBER, 
....................    NOVEMBER, 
....................    DECEMBER 
.................... }  Month; 
....................  
.................... typedef struct tm 
.................... { 
....................    unsigned int8 tm_sec;   // seconds after the minute (0-59) 
....................    unsigned int8 tm_min;   // minutes after the hour (0-59) 
....................    unsigned int8 tm_hour;  // hours since midnight (0-23) 
....................    unsigned int8 tm_mday;  // day of the month (1-31) 
....................    Month tm_mon;           // month of the year (0-11) 
....................    unsigned int16 tm_year; // years since 1900 
....................    Weekday tm_wday;        // day of the week (0-6) (Sunday=0) 
....................    unsigned int16 tm_yday; // day of the year (0-365) 
.................... } struct_tm; 
....................  
....................  
.................... /* returns number of ticks incremented at CLOCKS_PER_SECOND rate.  This 
....................    function must be provided by the library of your timebase */ 
.................... clock_t clock(void); 
....................  
.................... /* returns time in seconds since January 1 1970 (or January 1 2010 if  
....................    TIME_T_USES_2010 is being used).  This function must be provided by the 
....................    library of your timebase.  For example, see CCS's ds1305.c driver. */ 
.................... time_t time(time_t * timer); 
....................  
.................... /* Returns the difference in seconds between two times 
....................  * Times later and earlier are expressed in seconds  
....................  */ 
.................... signed int32 difftime(time_t later, time_t earlier); 
....................  
.................... /* Calculates the Unix Time from a standard time format 
....................  * Returns the Unix Time (time in seconds since Jan 1, 1970 00:00:00) 
....................  */ 
.................... time_t mktime(struct_tm * timeT); 
....................  
.................... /* Returns the given time as a string of the form:  
....................  *  Day Mon X HH:MM:SS YYYY\0  
....................  */ 
.................... char * asctime(struct_tm * timeptr, char *szTime = 0); 
....................  
.................... /* the inverse of asctime().  you can skip the wday portion of the string, and 
....................    then this function will not populate the tm_wday in pTm.  If you do skip 
....................    the wday portion of the string, then you can use localtime(mktime()) to 
....................    populate tm_wday with the correct value based on the date.  if pTm is 
....................    NULL it won't save result, but function will still return TRUE or FALSE. 
....................    Function returns TRUE if the format of the input string is valid. */ 
.................... int1 timeasc(struct_tm *pTm, char *szTime); 
....................  
.................... /* Converts the given calendar time (in seconds) to local time 
....................  * and returns the equivalent string.  
....................  */ 
.................... char * ctime(time_t * timer, char *szTime = 0); 
....................  
.................... /* Converts the given calendar time (in seconds) to local time 
....................  * and sets this time in the global g_lTime 
....................  * Returns a pointer to g_lTime 
....................  */ 
.................... struct_tm * localtime ( time_t * timer ); 
.................... #define gmtime(t) localtime(t) 
....................  
.................... /* Set the time of your system.  This function must pe provided by the library 
....................    of your timebase (see CCS's ds1305.c driver) */ 
.................... void SetTime(struct_tm * nTime); 
....................  
.................... /* Set the time of your system.  This function must pe provided by the library 
....................    of your timebase (see CCS's ds1305.c driver) */ 
.................... void SetTimeSec(time_t sTime); 
....................  
.................... /* Get the time of your system.  This is similar to the standard time() 
....................    function, but this returns directly to a struct_tm.  Since most RTC's work 
....................    with a structure similar to struct_tm, this may be more effecient to use 
....................    than time().   This function must pe provided by the library of your  
....................    timebase (see CCS's ds1305.c driver) */ 
.................... void GetTime(struct_tm *pRetTm); 
....................  
.................... /* Initialize your timebase. This function must pe provided by the library of your  
....................    timebase (see CCS's ds1305.c driver) */ 
.................... void TimeInit(void); 
....................  
.................... #endif 
....................  
.................... #include <stdint.h> 
.................... /////////////////////////////////////////////////////////////////////////// 
.................... ////                                                                   //// 
.................... ////                           stdint.h                                //// 
.................... ////                                                                   //// 
.................... //// Standard integer definitions.                                     //// 
.................... ////                                                                   //// 
.................... /////////////////////////////////////////////////////////////////////////// 
.................... ////        (C) Copyright 1996,2008 Custom Computer Services           //// 
.................... //// This source code may only be used by licensed users of the CCS C  //// 
.................... //// compiler.  This source code may only be distributed to other      //// 
.................... //// licensed users of the CCS C compiler.  No other use, reproduction //// 
.................... //// or distribution is permitted without written permission.          //// 
.................... //// Derivative programs created using this software in object code    //// 
.................... //// form are not restricted in any way.                               //// 
.................... /////////////////////////////////////////////////////////////////////////// 
....................  
.................... #ifndef _STDINT 
....................  
.................... #define _STDINT 
....................  
.................... //////////// exact width 
....................  
.................... typedef signed int8 int8_t; 
.................... typedef unsigned int8 uint8_t; 
.................... typedef signed int16 int16_t; 
.................... typedef unsigned int16 uint16_t; 
.................... typedef signed int32 int32_t; 
.................... typedef unsigned int32 uint32_t; 
....................  
.................... #if defined(__PCD__) 
.................... //typedef signed int24 int24_t; 
.................... //typedef unsigned int24 uint24_t; 
.................... typedef signed int64 int64_t; 
.................... typedef unsigned int64 uint64_t; 
.................... #endif 
....................  
.................... #define INT8_MAX  (127) 
.................... #define INT8_MIN  (-128) 
.................... #define UINT8_MAX (255) 
....................  
.................... #define INT16_MAX  (32767) 
.................... #define INT16_MIN  (-32768) 
.................... #define UINT16_MAX (65535) 
....................  
.................... #define INT32_MAX  (2147483647) 
.................... #define INT32_MIN  (-2147483648) 
.................... #define UINT32_MAX (4294967295) 
....................  
.................... #if defined(__PCD__) 
.................... //#define INT24_MAX  (8388607) 
.................... //#define INT24_MIN  (-8388608) 
.................... //#define UINT24_MAX (16777215) 
....................  
.................... #define INT64_MAX  (9223372036854775807) 
.................... #define INT64_MIN  (-9223372036854775808) 
.................... #define UINT64_MAX (18446744073709551615) 
.................... #endif 
....................  
.................... ///////// minimum width 
....................  
.................... typedef signed int8 int_least8_t; 
.................... typedef unsigned int8 uint_least8_t; 
.................... typedef signed int16 int_least16_t; 
.................... typedef unsigned int16 uint_least16_t; 
.................... typedef signed int32 int_least32_t; 
.................... typedef unsigned int32 uint_least32_t; 
....................  
.................... #if defined(__PCD__) 
.................... //typedef signed int24 int_least24_t; 
.................... //typedef unsigned int24 uint_least24_t; 
.................... typedef signed int64 int_least64_t; 
.................... typedef unsigned int64 uint_least64_t; 
.................... #endif 
....................  
.................... #define INT_LEAST8_MAX  (127) 
.................... #define INT_LEAST8_MIN  (-128) 
.................... #define UINT_LEAST8_MAX (255) 
....................  
.................... #define INT_LEAST16_MAX  (32767) 
.................... #define INT_LEAST16_MIN  (-32768) 
.................... #define UINT_LEAST16_MAX (65535) 
....................  
.................... #define INT_LEAST32_MAX  (2147483647) 
.................... #define INT_LEAST32_MIN  (-2147483648) 
.................... #define UINT_LEAST32_MAX (4294967295) 
....................  
.................... #if defined(__PCD__) 
.................... //#define INT_LEAST24_MAX  (8388607) 
.................... //#define INT_LEAST24_MIN  (-8388608) 
.................... //#define UINT_LEAST24_MAX (16777215) 
....................  
.................... #define INT_LEAST64_MAX  (9223372036854775807) 
.................... #define INT_LEAST64_MIN  (-9223372036854775808) 
.................... #define UINT_LEAST64_MAX (18446744073709551615) 
.................... #endif 
....................  
.................... ///////// fastest width 
....................  
.................... #if defined(__PCD__) 
.................... typedef signed int16 int_fast8_t; 
.................... typedef unsigned int16 uint_fast8_t; 
.................... #define INT_FAST8_MAX  (32767) 
.................... #define INT_FAST8_MIN  (-32768) 
.................... #define UINT_FAST8_MAX (65535) 
.................... typedef signed int16 int_fast16_t; 
.................... typedef unsigned int16 uint_fast16_t; 
.................... //typedef signed int24 int_fast24_t; 
.................... //typedef unsigned int24 uint_fast24_t; 
.................... typedef signed int64 int_fast64_t; 
.................... typedef unsigned int64 uint_fast64_t; 
.................... #else 
.................... typedef signed int8 int_fast8_t; 
.................... typedef unsigned int8 uint_fast8_t; 
.................... #define INT_FAST8_MAX  (127) 
.................... #define INT_FAST8_MIN  (-128) 
.................... #define UINT_FAST8_MAX (255) 
.................... typedef signed int16 int_fast16_t; 
.................... typedef unsigned int16 uint_fast16_t; 
.................... #endif 
....................  
.................... typedef signed int32 int_fast32_t; 
.................... typedef unsigned int32 uint_fast32_t; 
....................  
.................... #define INT_FAST16_MAX  (32767) 
.................... #define INT_FAST16_MIN  (-32768) 
.................... #define UINT_FAST16_MAX (65535) 
....................  
.................... #define INT_FAST32_MAX  (2147483647) 
.................... #define INT_FAST32_MIN  (-2147483648) 
.................... #define UINT_FAST32_MAX (4294967295) 
....................  
.................... #if defined(__PCD__) 
.................... //#define INT_FAST24_MAX  (8388607) 
.................... //#define INT_FAST24_MIN  (-8388608) 
.................... //#define UINT_FAST24_MAX (16777215) 
....................  
.................... #define INT_FAST64_MAX  (9223372036854775807) 
.................... #define INT_FAST64_MIN  (-9223372036854775808) 
.................... #define UINT_FAST64_MAX (18446744073709551615) 
.................... #endif 
....................  
.................... //////////// big enough to hold pointers (OPTIONAL) 
....................  
.................... /// TODO 
....................  
.................... /// intptr_t uintptr_t 
....................  
.................... /// INTPTRN_MIN INTPTRN_MAX UINTPTRN_MAX 
....................  
....................  
.................... /////////// greatest width (OPTIONAL) 
....................  
.................... /// TODO 
....................  
.................... /// intmax_t uintmax_t 
....................  
.................... /// INTMAXN_MIN INTMAXN_MAX UINTMAXN_MAX 
....................  
.................... /// INTMAX_C(value) UINTMAX_C(value) 
....................  
....................  
.................... #endif 
....................  
....................  
.................... #fuses INTRC_IO,NOWDT,NOPUT,NOBROWNOUT,NOLVP,NOPROTECT 
.................... #use delay(clock=16M) // 4xPLL setting  
*
001C0:  CLRF   FEA
001C2:  MOVLW  61
001C4:  MOVWF  FE9
001C6:  MOVF   FEF,W
001C8:  BZ    01E6
001CA:  MOVLW  05
001CC:  MOVWF  01
001CE:  CLRF   00
001D0:  DECFSZ 00,F
001D2:  BRA    01D0
001D4:  DECFSZ 01,F
001D6:  BRA    01CE
001D8:  MOVLW  2E
001DA:  MOVWF  00
001DC:  DECFSZ 00,F
001DE:  BRA    01DC
001E0:  BRA    01E2
001E2:  DECFSZ FEF,F
001E4:  BRA    01CA
001E6:  RETURN 0
.................... #use rs232(uart1, baud = 19200, bits=8, PARITY=N, STOP=1, stream = TS02)                // Initialize UART module 
*
001B8:  BTFSS  F9E.4
001BA:  BRA    01B8
001BC:  MOVWF  FAD
001BE:  RETURN 0
.................... #use rs232(uart2, baud = 9600,bits=8, PARITY=N, STOP=1, stream = scale) 
.................... #priority  INT_RDA2, INT_RDA, INT_TIMER0 
....................  
.................... //PORTA 
.................... union ra_pin_union{ 
.................... 	struct ra_pin_map{ 
.................... 		boolean IO0			:1;			//RA0		0 
.................... 		boolean IO1			:1;			//RA1		0 
.................... 		boolean IO2			:1;			//RA2		0 
.................... 		boolean IO3			:1;			//RA3		0 
.................... 		boolean IO4			:1;			//RA4		0 
.................... 		boolean IO5			:1;			//RA5		0 
.................... 		boolean noused6		:1;			//			0 
.................... 		boolean noused7		:1;			//			0 
.................... 	}RA; 
.................... 	int8 si8_PORTA; 
.................... }PORTA; 
.................... union ra_pin_union LATA; 
.................... union ra_pin_union TRISA; 
.................... #byte PORTA		= 0x0F80 
.................... #byte TRISA		= 0x0F92 
.................... #byte LATA		= 0x0F89 
.................... #byte ANSELA	= 0x0F38 
....................  
.................... #define def_TRIS_A		0b00001000		// all output 
.................... #define def_WPUA		0b00000000		//no pull up 
....................  
.................... //PORTB 
.................... union rb_pin_union{ 
.................... 	struct rb_pin_map{ 
.................... 		boolean IO6			:1;			//RB0		0 
.................... 		boolean IO7			:1;			//RB1		0 
.................... 		boolean IO8			:1;			//RB2		0 
.................... 		boolean IO9			:1;			//RB3		0 
.................... 		boolean IO10		:1;			//RB4		0 
.................... 		boolean IO11		:1;			//RB5		0 
.................... 		boolean noused6		:1;			//RB6		0 
.................... 		boolean noused7		:1;			//RB7		0 
.................... 	}RB; 
.................... 	int8 si8_PORTB; 
.................... }PORTB; 
.................... union rb_pin_union LATB; 
.................... union rb_pin_union TRISB; 
.................... #byte PORTB		= 0x0F81 
.................... #byte TRISB		= 0x0F93 
.................... #byte LATB		= 0x0F8A 
.................... #byte ANSELB	= 0x0F39 
....................  
.................... #define def_TRIS_B		0b00000000		//all output 
.................... #define def_WPUB		0b00000000		//no pull up 
....................  
.................... //PORTC 
.................... union rc_pin_union{ 
.................... 	struct rc_pin_map{ 
.................... 		boolean IO12		:1;			//RC0		0 
.................... 		boolean IO13		:1;			//RC1		0 
.................... 		boolean IO14		:1;			//RC2		0 
.................... 		boolean IO15		:1;			//RC3		0 
.................... 		boolean IO16		:1;			//RC4		0 
.................... 		boolean IO17		:1;			//RC5		0 
.................... 		boolean TX1			:1;			//RC6		0 
.................... 		boolean RX1			:1;			//RC7		0 
.................... 	}RC; 
.................... 	int8 si8_PORTC; 
.................... }PORTC; 
.................... union rc_pin_union LATC; 
.................... union rc_pin_union TRISC; 
.................... #byte PORTC		= 0x0F82 
.................... #byte TRISC		= 0x0F94 
.................... #byte LATC		= 0x0F8B 
.................... #byte ANSELC	= 0x0F3A 
....................  
.................... #define	def_TRIS_C		0b00000000		//all output 
.................... #define WPUC			0b00000000		//no pull up 
....................  
.................... //PORTD 
.................... union rd_pin_union{ 
.................... 	struct rd_pin_map{ 
.................... 		boolean IO22		:1;			//RD0		0 
.................... 		boolean IO23		:1;			//RD1		0 
.................... 		boolean IO24		:1;			//RD2		0 
.................... 		boolean IO25		:1;			//RD3		0 
.................... 		boolean IO26		:1;			//RD4		0 
.................... 		boolean IO27		:1;			//RD5		0 
.................... 		boolean IO28		:1;			//RD6		0 
.................... 		boolean IO29		:1;			//RD7		0 
.................... 	}RD; 
.................... 	int8 si8_PORTD; 
.................... }PORTD; 
.................... union rd_pin_union LATD; 
.................... union rd_pin_union TRISD; 
.................... #byte PORTD		= 0x0F83 
.................... #byte TRISD		= 0x0F95 
.................... #byte LATD		= 0x0F8C 
.................... #byte ANSELD	= 0x0F3B 
....................  
.................... #define def_TRIS_D		0b00000000		//all output 
.................... #define	WPUD			0b00000000		//no pull up 
....................  
.................... //PORTE 
.................... union re_pin_union{ 
.................... 	struct re_pin_map{ 
.................... 		boolean IO18		:1;			//RE0		0 
.................... 		boolean IO19		:1;			//RE1		0 
.................... 		boolean IO20		:1;			//RE2		0 
.................... 		boolean noused3		:1;			//RE3 
.................... 		boolean noused4		:1;			//RE4 
.................... 		boolean noused5		:1;			//RE5 
.................... 		boolean noused6		:1;			//RE6 
.................... 		boolean noused7		:1;			//RE7 
.................... 	}RE; 
.................... 	int8 si8_PORTE; 
.................... }PORTE; 
.................... union re_pin_union LATE; 
.................... union re_pin_union TRISE; 
.................... #byte PORTE		= 0x0F84 
.................... #byte TRISE		= 0x0F96 
.................... #byte LATE		= 0x0F8D 
.................... #byte ANSELE	= 0x0F3C 
....................  
.................... #define def_TRIS_E		0b00000000		//all output 
.................... #define WUPE			0b00000000		//no pull up 
....................  
.................... #define RDY PIN_C1 
.................... #define SET3 PIN_A4 
.................... #byte OSCCON = 0x0FD3 
.................... #byte OSCTUNE = 0x0F9B 
.................... #byte OSCCON2 = 0x0FD2 
....................  
.................... #define C6   237  
.................... #define D6   211  
.................... #define E6   188  
.................... #define F6   177  
.................... #define G6   158  
.................... #define A6   141  
.................... #define B6   125  
.................... #define C7   118 
.................... #define D7   105  
.................... #define E7   94  
.................... #define F7   88  
.................... #define G7   78  
.................... #define A7   70  
.................... #define B7   62  
....................  
....................  
.................... char TS02_ID[5]; 
.................... #define	def_TS02_size		50 
.................... static int TS02_buff[def_TS02_size]; 
.................... static int TS02_buff_count; 
.................... int8 ID=0; 
.................... uint8_t seq_num = 0; 
....................  
....................  
....................  
.................... void clear_TS02_buff(void){ 
....................     int8 i; 
....................     for( i = 0; i < def_TS02_size; i++ ){ 
*
002A6:  CLRF   5F
002A8:  MOVF   5F,W
002AA:  SUBLW  31
002AC:  BNC   02C2
....................         TS02_buff[i] = '\0'; 
002AE:  CLRF   03
002B0:  MOVF   5F,W
002B2:  ADDLW  26
002B4:  MOVWF  FE9
002B6:  MOVLW  00
002B8:  ADDWFC 03,W
002BA:  MOVWF  FEA
002BC:  CLRF   FEF
002BE:  INCF   5F,F
002C0:  BRA    02A8
....................     } 
.................... 	TS02_buff_count = 0; 
002C2:  CLRF   58
002C4:  RETURN 0
.................... } 
....................  
.................... void TS02_INIT(void){ 
.................... 	fprintf(TS02, "#MD000A"); 
*
001E8:  MOVLW  AE
001EA:  MOVWF  FF6
001EC:  MOVLW  00
001EE:  MOVWF  FF7
001F0:  RCALL  0196
.................... 	putc(0x0D,TS02); 
001F2:  MOVLW  0D
001F4:  RCALL  01B8
.................... 	delay_ms(200); 
001F6:  MOVLW  C8
001F8:  MOVWF  x61
001FA:  RCALL  01C0
....................  
.................... 	fprintf(TS02, "#CG04"); 
001FC:  MOVLW  B6
001FE:  MOVWF  FF6
00200:  MOVLW  00
00202:  MOVWF  FF7
00204:  RCALL  0196
.................... 	putc(0x0D,TS02); 
00206:  MOVLW  0D
00208:  RCALL  01B8
.................... 	delay_ms(200); 
0020A:  MOVLW  C8
0020C:  MOVWF  x61
0020E:  RCALL  01C0
.................... 	 
.................... 	fprintf(TS02, "#ID0009"); 
00210:  MOVLW  BC
00212:  MOVWF  FF6
00214:  MOVLW  00
00216:  MOVWF  FF7
00218:  RCALL  0196
.................... 	putc(0x0D,TS02); 
0021A:  MOVLW  0D
0021C:  RCALL  01B8
.................... 	delay_ms(200); 
0021E:  MOVLW  C8
00220:  MOVWF  x61
00222:  RCALL  01C0
....................  
.................... 	fprintf(TS02, "#AK0"); 
00224:  MOVLW  C4
00226:  MOVWF  FF6
00228:  MOVLW  00
0022A:  MOVWF  FF7
0022C:  RCALL  0196
.................... 	putc(0x0D,TS02); 
0022E:  MOVLW  0D
00230:  RCALL  01B8
.................... 	delay_ms(200); 
00232:  MOVLW  C8
00234:  MOVWF  x61
00236:  RCALL  01C0
00238:  GOTO   05EC (RETURN)
.................... } 
....................  
.................... void sound(int s, int8 t){ 
.................... 	setup_ccp1(CCP_PWM); 
*
003D6:  BCF    F94.2
003D8:  BCF    F8B.2
003DA:  MOVLW  0C
003DC:  MOVWF  FBD
003DE:  CLRF   FB7
003E0:  CLRF   FB6
003E2:  MOVLW  01
003E4:  MOVWF  FB9
003E6:  MOVLW  FC
003E8:  MOVLB  F
003EA:  ANDWF  x49,F
003EC:  MOVLW  00
003EE:  IORWF  x49,F
....................    	setup_timer_2(T2_DIV_BY_16, t, 1); 
003F0:  IORLW  06
003F2:  MOVWF  FBA
003F4:  MOVFF  5F,FBB
.................... 	int n=0; 
003F8:  MOVLB  0
003FA:  CLRF   x60
....................    	while (n<s)	{ 
003FC:  MOVF   5E,W
003FE:  SUBWF  x60,W
00400:  BC    0426
.................... 		set_pwm1_duty(300); 
00402:  MOVLW  4B
00404:  MOVWF  FBE
00406:  MOVF   FBD,W
00408:  ANDLW  CF
0040A:  MOVWF  FBD
.................... 	   	delay_ms(50); 
0040C:  MOVLW  32
0040E:  MOVWF  x61
00410:  RCALL  01C0
.................... 		set_pwm1_duty(1023); 
00412:  SETF   FBE
00414:  MOVF   FBD,W
00416:  ANDLW  CF
00418:  IORLW  30
0041A:  MOVWF  FBD
.................... 	   	delay_ms(25); 
0041C:  MOVLW  19
0041E:  MOVWF  x61
00420:  RCALL  01C0
.................... 		n++; 
00422:  INCF   x60,F
00424:  BRA    03FC
.................... 	} 
.................... 	setup_ccp1(CCP_OFF); 
00426:  MOVLW  F0
00428:  ANDWF  FBD,F
0042A:  RETURN 0
.................... } 
....................  
.................... uint8_t ascii2hex(uint8_t value){ 
.................... 	if((value) >= 0x41){ 
*
00270:  MOVF   x61,W
00272:  SUBLW  40
00274:  BC    0280
.................... 		return (value - 0x37); 
00276:  MOVLW  37
00278:  SUBWF  x61,W
0027A:  MOVWF  01
0027C:  BRA    0286
.................... 	} 
0027E:  BRA    0286
.................... 	else return (value-0x30); 
00280:  MOVLW  30
00282:  SUBWF  x61,W
00284:  MOVWF  01
00286:  RETURN 0
.................... } 
....................  
.................... void get_id (void){ 
.................... 	fprintf(TS02, "#?I"); 
*
002C6:  MOVLW  CA
002C8:  MOVWF  FF6
002CA:  MOVLW  00
002CC:  MOVWF  FF7
002CE:  RCALL  0196
.................... 	putc(0x0D,TS02); 
002D0:  MOVLW  0D
002D2:  RCALL  01B8
.................... 	delay_ms(200); 
002D4:  MOVLW  C8
002D6:  MOVWF  x61
002D8:  RCALL  01C0
.................... 	 
.................... 	if (TS02_buff!='\0'){ 
.................... 		for(int u = 0; u < strlen(TS02_buff)-1; u++){ 
002DA:  CLRF   5E
002DC:  CLRF   x60
002DE:  MOVLW  26
002E0:  MOVWF  5F
002E2:  RCALL  023C
002E4:  MOVFF  02,60
002E8:  MOVFF  01,5F
002EC:  MOVLW  01
002EE:  SUBWF  01,W
002F0:  MOVWF  00
002F2:  MOVLW  00
002F4:  SUBWFB 02,W
002F6:  MOVWF  03
002F8:  MOVFF  00,01
002FC:  MOVF   03,F
002FE:  BNZ   0306
00300:  MOVF   01,W
00302:  SUBWF  5E,W
00304:  BC    0362
.................... 			if(TS02_buff[u] == '$'){ 
00306:  CLRF   03
00308:  MOVF   5E,W
0030A:  ADDLW  26
0030C:  MOVWF  FE9
0030E:  MOVLW  00
00310:  ADDWFC 03,W
00312:  MOVWF  FEA
00314:  MOVF   FEF,W
00316:  SUBLW  24
00318:  BNZ   035E
.................... 				strcpy(&TS02_buff[u], &TS02_buff[u+1]); 
0031A:  CLRF   03
0031C:  MOVF   5E,W
0031E:  ADDLW  26
00320:  MOVWF  01
00322:  MOVLW  00
00324:  ADDWFC 03,F
00326:  MOVFF  01,5F
0032A:  MOVFF  03,60
0032E:  MOVLW  01
00330:  ADDWF  5E,W
00332:  CLRF   03
00334:  ADDLW  26
00336:  MOVWF  01
00338:  MOVLW  00
0033A:  ADDWFC 03,F
0033C:  MOVFF  01,61
00340:  MOVFF  03,62
00344:  MOVFF  60,FEA
00348:  MOVFF  5F,FE9
0034C:  MOVFF  03,FE2
00350:  MOVFF  01,FE1
00354:  MOVF   FE7,F
00356:  MOVFF  FE6,FEE
0035A:  BNZ   0354
.................... 				u--; 
0035C:  DECF   5E,F
.................... 			} 
0035E:  INCF   5E,F
00360:  BRA    02DC
.................... 		} 
.................... 	} 
.................... 	strcpy(TS02_ID, TS02_buff); 
00362:  CLRF   FEA
00364:  MOVLW  21
00366:  MOVWF  FE9
00368:  CLRF   FE2
0036A:  MOVLW  26
0036C:  MOVWF  FE1
0036E:  MOVF   FE7,F
00370:  MOVFF  FE6,FEE
00374:  BNZ   036E
.................... 	ID=ascii2hex(TS02_buff[0])*4096+ascii2hex(TS02_buff[1])*256+ascii2hex(TS02_buff[2])*16+ascii2hex(TS02_buff[3]); 
00376:  MOVFF  26,61
0037A:  RCALL  0270
0037C:  CLRF   x63
0037E:  MOVFF  01,62
00382:  MOVLW  10
00384:  MOVWF  x65
00386:  CLRF   x64
00388:  RCALL  0288
0038A:  MOVFF  02,60
0038E:  MOVFF  01,5F
00392:  MOVFF  27,61
00396:  RCALL  0270
00398:  CLRF   x63
0039A:  MOVFF  01,62
0039E:  MOVLW  01
003A0:  MOVWF  x65
003A2:  CLRF   x64
003A4:  RCALL  0288
003A6:  MOVFF  02,03
003AA:  MOVF   01,W
003AC:  ADDWF  5F,F
003AE:  MOVF   02,W
003B0:  ADDWFC x60,F
003B2:  MOVFF  28,61
003B6:  RCALL  0270
003B8:  MOVF   01,W
003BA:  MULLW  10
003BC:  MOVF   FF3,W
003BE:  ADDWF  5F,F
003C0:  MOVLW  00
003C2:  ADDWFC x60,F
003C4:  MOVFF  29,61
003C8:  RCALL  0270
003CA:  MOVF   01,W
003CC:  ADDWF  5F,W
003CE:  MOVWF  59
.................... 	clear_TS02_buff(); 
003D0:  RCALL  02A6
003D2:  GOTO   05FC (RETURN)
.................... } 
....................  
.................... void debug (void){ 
.................... 	fprintf(TS02, "\nRESET:%sV.1.3E",TS02_ID ); 
*
00474:  MOVLW  CE
00476:  MOVWF  FF6
00478:  MOVLW  00
0047A:  MOVWF  FF7
0047C:  MOVLW  07
0047E:  MOVWF  x67
00480:  RCALL  042C
00482:  CLRF   FEA
00484:  MOVLW  21
00486:  MOVWF  FE9
00488:  BRA    044C
0048A:  MOVLW  D7
0048C:  MOVWF  FF6
0048E:  MOVLW  00
00490:  MOVWF  FF7
00492:  MOVLW  06
00494:  MOVWF  x67
00496:  RCALL  042C
.................... 	while(input(RDY)); 
00498:  BSF    F94.1
0049A:  BTFSC  F82.1
0049C:  BRA    0498
0049E:  GOTO   0620 (RETURN)
.................... } 
....................  
.................... #INT_RDA 
.................... void RDA_isr(void){ 
.................... 	if(kbhit(TS02)){ 
*
000DE:  BTFSS  F9E.5
000E0:  BRA    00FA
.................... 		TS02_buff[TS02_buff_count] = getc(TS02); 
000E2:  CLRF   03
000E4:  MOVF   58,W
000E6:  ADDLW  26
000E8:  MOVWF  FE9
000EA:  MOVLW  00
000EC:  ADDWFC 03,W
000EE:  MOVWF  FEA
000F0:  BTFSS  F9E.5
000F2:  BRA    00F0
000F4:  MOVFF  FAE,FEF
.................... 		TS02_buff_count++; 
000F8:  INCF   58,F
.................... 	} 
000FA:  BCF    F9E.5
000FC:  GOTO   0060
.................... } 
....................  
....................  
.................... void main(void){ 
*
00536:  CLRF   FF8
00538:  BCF    FD0.7
0053A:  BSF    07.7
0053C:  MOVLW  70
0053E:  MOVWF  FD3
00540:  BCF    F9B.6
00542:  BCF    F9B.7
00544:  BCF    FB8.3
00546:  MOVLW  0C
00548:  MOVWF  FAF
0054A:  MOVLW  A2
0054C:  MOVWF  FAC
0054E:  MOVLW  90
00550:  MOVWF  FAB
00552:  BSF    F70.3
00554:  MOVLW  A0
00556:  MOVWF  F75
00558:  MOVLW  01
0055A:  MOVWF  F76
0055C:  MOVLW  A6
0055E:  MOVWF  F72
00560:  MOVLW  90
00562:  MOVWF  F71
00564:  CLRF   59
00566:  CLRF   5A
00568:  CLRF   5C
0056A:  CLRF   5B
0056C:  MOVLB  F
0056E:  CLRF   x38
00570:  CLRF   x39
00572:  CLRF   x3A
00574:  CLRF   F77
00576:  CLRF   F78
00578:  CLRF   F79
0057A:  CLRF   20
0057C:  MOVLW  6E
0057E:  MOVWF  1F
00580:  MOVLW  0E
00582:  MOVLB  0
00584:  MOVWF  x6F
00586:  MOVLW  C6
00588:  MOVWF  x6E
0058A:  CLRF   x71
0058C:  CLRF   x70
0058E:  BRA    059A
00590:  DATA 02,00
00592:  DATA 19,00
00594:  DATA 00,33
00596:  DATA 40,26
00598:  DATA 00,00
0059A:  MOVLW  00
0059C:  MOVWF  FF8
0059E:  MOVLW  05
005A0:  MOVWF  FF7
005A2:  MOVLW  90
005A4:  MOVWF  FF6
005A6:  TBLRD*+
005A8:  MOVF   FF5,W
005AA:  MOVWF  00
005AC:  XORLW  00
005AE:  BZ    05D6
005B0:  TBLRD*+
005B2:  MOVF   FF5,W
005B4:  MOVWF  01
005B6:  BTFSC  FE8.7
005B8:  BRA    05C4
005BA:  ANDLW  0F
005BC:  MOVWF  FEA
005BE:  TBLRD*+
005C0:  MOVFF  FF5,FE9
005C4:  BTFSC  01.6
005C6:  TBLRD*+
005C8:  BTFSS  01.6
005CA:  TBLRD*+
005CC:  MOVFF  FF5,FEE
005D0:  DCFSNZ 00,F
005D2:  BRA    05A6
005D4:  BRA    05C8
005D6:  CLRF   FF8
.................... 	OSCCON=0x72; 
005D8:  MOVLW  72
005DA:  MOVWF  FD3
.................... 	setup_oscillator(OSC_16MHz); //16 mhz 
005DC:  MOVLW  70
005DE:  MOVWF  FD3
005E0:  BCF    F9B.6
005E2:  BCF    F9B.7
.................... 	enable_interrupts(INT_RDA); 
005E4:  BSF    F9D.5
.................... 	enable_interrupts(GLOBAL); 
005E6:  MOVLW  C0
005E8:  IORWF  FF2,F
.................... 	 
.................... 	TS02_INIT(); 
005EA:  BRA    01E8
.................... 	 
.................... 	delay_ms(2000); 
005EC:  MOVLW  08
005EE:  MOVWF  5E
005F0:  MOVLW  FA
005F2:  MOVWF  x61
005F4:  RCALL  01C0
005F6:  DECFSZ 5E,F
005F8:  BRA    05F0
.................... 	get_id(); 
005FA:  BRA    02C6
....................  
.................... 	output_low(SET3); 
005FC:  BCF    F92.4
005FE:  BCF    F89.4
.................... 	sound(1, C6); 
00600:  MOVLW  01
00602:  MOVWF  5E
00604:  MOVLW  ED
00606:  MOVWF  5F
00608:  RCALL  03D6
.................... 	sound(1, D6); 
0060A:  MOVLW  01
0060C:  MOVWF  5E
0060E:  MOVLW  D3
00610:  MOVWF  5F
00612:  RCALL  03D6
.................... 	sound(1, E6); 
00614:  MOVLW  01
00616:  MOVWF  5E
00618:  MOVLW  BC
0061A:  MOVWF  5F
0061C:  RCALL  03D6
.................... 	debug(); 
0061E:  BRA    0474
.................... 	 
.................... 	while(true){ 
.................... 		if(TS02_buff[TS02_buff_count - 1] == 0x0D){ 
00620:  MOVLW  01
00622:  SUBWF  58,W
00624:  CLRF   03
00626:  ADDLW  26
00628:  MOVWF  FE9
0062A:  MOVLW  00
0062C:  ADDWFC 03,W
0062E:  MOVWF  FEA
00630:  MOVF   FEF,W
00632:  SUBLW  0D
00634:  BTFSS  FD8.2
00636:  BRA    07CE
.................... 			int8 i=0; 
00638:  CLRF   5D
.................... 			for(i = 0; i < strlen(TS02_buff); i++){ 
0063A:  CLRF   5D
0063C:  CLRF   x60
0063E:  MOVLW  26
00640:  MOVWF  5F
00642:  RCALL  023C
00644:  MOVFF  02,03
00648:  MOVF   01,W
0064A:  MOVF   03,F
0064C:  BNZ   0656
0064E:  MOVF   01,W
00650:  SUBWF  5D,W
00652:  BTFSC  FD8.0
00654:  BRA    07CE
.................... 				if (((TS02_buff[i] == 0x3F)&&(TS02_buff[i+1] == 0x3F))){ 
00656:  CLRF   03
00658:  MOVF   5D,W
0065A:  ADDLW  26
0065C:  MOVWF  FE9
0065E:  MOVLW  00
00660:  ADDWFC 03,W
00662:  MOVWF  FEA
00664:  MOVF   FEF,W
00666:  SUBLW  3F
00668:  BTFSS  FD8.2
0066A:  BRA    07CA
0066C:  MOVLW  01
0066E:  ADDWF  5D,W
00670:  CLRF   03
00672:  ADDLW  26
00674:  MOVWF  FE9
00676:  MOVLW  00
00678:  ADDWFC 03,W
0067A:  MOVWF  FEA
0067C:  MOVF   FEF,W
0067E:  SUBLW  3F
00680:  BTFSS  FD8.2
00682:  BRA    07CA
.................... 					fprintf(TS02, "S%uN134.3U20.000A20T1S%uN134.3A20T1S%uN134.3A20T1S%uN134.3A20T1S%uN134.3A20T1S%uN134.3A20T1S%uN134.3A20T1S%uN134.3A20T1S%uN134.3A20T1S%uN134.3A20T1E", seq_num,seq_num+1,seq_num+2,seq_num+3,seq_num+4,seq_num+5,seq_num+6,seq_num+7,seq_num+8,seq_num+9); 
00684:  MOVLW  01
00686:  ADDWF  5A,W
00688:  MOVWF  5E
0068A:  MOVLW  02
0068C:  ADDWF  5A,W
0068E:  MOVWF  5F
00690:  MOVLW  03
00692:  ADDWF  5A,W
00694:  MOVWF  x60
00696:  MOVLW  04
00698:  ADDWF  5A,W
0069A:  MOVWF  x61
0069C:  MOVLW  05
0069E:  ADDWF  5A,W
006A0:  MOVWF  x62
006A2:  MOVLW  06
006A4:  ADDWF  5A,W
006A6:  MOVWF  x63
006A8:  MOVLW  07
006AA:  ADDWF  5A,W
006AC:  MOVWF  x64
006AE:  MOVLW  08
006B0:  ADDWF  5A,W
006B2:  MOVWF  x65
006B4:  MOVLW  09
006B6:  ADDWF  5A,W
006B8:  MOVWF  x66
006BA:  MOVLW  53
006BC:  BTFSS  F9E.4
006BE:  BRA    06BC
006C0:  MOVWF  FAD
006C2:  MOVFF  5A,67
006C6:  MOVLW  1B
006C8:  MOVWF  x68
006CA:  RCALL  04CA
006CC:  MOVLW  03
006CE:  MOVWF  FF6
006D0:  MOVLW  01
006D2:  MOVWF  FF7
006D4:  MOVLW  13
006D6:  MOVWF  x67
006D8:  RCALL  042C
006DA:  MOVFF  5E,67
006DE:  MOVLW  1B
006E0:  MOVWF  x68
006E2:  RCALL  04CA
006E4:  MOVLW  18
006E6:  MOVWF  FF6
006E8:  MOVLW  01
006EA:  MOVWF  FF7
006EC:  MOVLW  0C
006EE:  MOVWF  x67
006F0:  RCALL  042C
006F2:  MOVFF  5F,67
006F6:  MOVLW  1B
006F8:  MOVWF  x68
006FA:  RCALL  04CA
006FC:  MOVLW  26
006FE:  MOVWF  FF6
00700:  MOVLW  01
00702:  MOVWF  FF7
00704:  MOVLW  0C
00706:  MOVWF  x67
00708:  RCALL  042C
0070A:  MOVFF  60,67
0070E:  MOVLW  1B
00710:  MOVWF  x68
00712:  RCALL  04CA
00714:  MOVLW  34
00716:  MOVWF  FF6
00718:  MOVLW  01
0071A:  MOVWF  FF7
0071C:  MOVLW  0C
0071E:  MOVWF  x67
00720:  RCALL  042C
00722:  MOVFF  61,67
00726:  MOVLW  1B
00728:  MOVWF  x68
0072A:  RCALL  04CA
0072C:  MOVLW  42
0072E:  MOVWF  FF6
00730:  MOVLW  01
00732:  MOVWF  FF7
00734:  MOVLW  0C
00736:  MOVWF  x67
00738:  RCALL  042C
0073A:  MOVFF  62,67
0073E:  MOVLW  1B
00740:  MOVWF  x68
00742:  RCALL  04CA
00744:  MOVLW  50
00746:  MOVWF  FF6
00748:  MOVLW  01
0074A:  MOVWF  FF7
0074C:  MOVLW  0C
0074E:  MOVWF  x67
00750:  RCALL  042C
00752:  MOVFF  63,67
00756:  MOVLW  1B
00758:  MOVWF  x68
0075A:  RCALL  04CA
0075C:  MOVLW  5E
0075E:  MOVWF  FF6
00760:  MOVLW  01
00762:  MOVWF  FF7
00764:  MOVLW  0C
00766:  MOVWF  x67
00768:  RCALL  042C
0076A:  MOVFF  64,67
0076E:  MOVLW  1B
00770:  MOVWF  x68
00772:  RCALL  04CA
00774:  MOVLW  6C
00776:  MOVWF  FF6
00778:  MOVLW  01
0077A:  MOVWF  FF7
0077C:  MOVLW  0C
0077E:  MOVWF  x67
00780:  RCALL  042C
00782:  MOVFF  65,67
00786:  MOVLW  1B
00788:  MOVWF  x68
0078A:  RCALL  04CA
0078C:  MOVLW  7A
0078E:  MOVWF  FF6
00790:  MOVLW  01
00792:  MOVWF  FF7
00794:  MOVLW  0C
00796:  MOVWF  x67
00798:  RCALL  042C
0079A:  MOVFF  66,67
0079E:  MOVLW  1B
007A0:  MOVWF  x68
007A2:  RCALL  04CA
007A4:  MOVLW  88
007A6:  MOVWF  FF6
007A8:  MOVLW  01
007AA:  MOVWF  FF7
007AC:  MOVLW  0C
007AE:  MOVWF  x67
007B0:  RCALL  042C
.................... 				    delay_ms(20); 
007B2:  MOVLW  14
007B4:  MOVWF  x61
007B6:  RCALL  01C0
.................... 				    while(input(RDY)); 
007B8:  BSF    F94.1
007BA:  BTFSC  F82.1
007BC:  BRA    07B8
.................... 				    sound(2,C7); 
007BE:  MOVLW  02
007C0:  MOVWF  5E
007C2:  MOVLW  76
007C4:  MOVWF  5F
007C6:  RCALL  03D6
.................... 				    clear_TS02_buff(); 
007C8:  RCALL  02A6
.................... 				} 
007CA:  INCF   5D,F
007CC:  BRA    063C
.................... 			} 
.................... 		} 
007CE:  BRA    0620
.................... 	}	 
.................... }			 
007D0:  BRA    07D0

Configuration Fuses:
   Word  1: E800   INTRC_IO NOPLLEN PRIMARY FCMEN IESO
   Word  2: 3C19   NOPUT NOBROWNOUT BORV19 NOWDT WDT32768
   Word  3: BF00   CCP2C1 PBADEN CCP3B5 HFOFST TIMER3C0 CCP2B5 MCLR
   Word  4: 0000   NOSTVREN NOLVP NOXINST DEBUG
   Word  5: C00F   NOPROTECT NOCPB NOCPD
   Word  6: E00F   NOWRT NOWRTC NOWRTB NOWRTD
   Word  7: 400F   NOEBTR NOEBTRB

   Some fuses have been forced to be compatible with the ICD debugger.
